###############################################################################
#                                                                             #
# IAR C/C++ Compiler V8.10.1.10194/W32 for 8051         22/Jan/2016  10:26:10 #
# Copyright 2004-2011 IAR Systems AB.                                         #
#                                                                             #
#    Core               =  plain                                              #
#    Code model         =  banked                                             #
#    Data model         =  large                                              #
#    Calling convention =  xdata reentrant                                    #
#    Constant location  =  data_rom                                           #
#    Dptr setup         =  1,16                                               #
#    Source file        =  E:\毕业设计\code\节点\Projects\zstack\Samples\Samp #
#                          leApp\Source\SampleApp.c                           #
#    Command line       =  -f E:\毕业设计\code\节点\Projects\zstack\Samples\S #
#                          ampleApp\CC2530DB\..\..\..\Tools\CC2530DB\f8wRoute #
#                          r.cfg (-DCPU32MHZ -DROOT=__near_func               #
#                          -DMAC_CFG_APP_PENDING_QUEUE=TRUE                   #
#                          -DMAC_CFG_TX_DATA_MAX=5 -DMAC_CFG_TX_MAX=8         #
#                          -DMAC_CFG_RX_MAX=5 -DRTR_NWK) -f                   #
#                          E:\毕业设计\code\节点\Projects\zstack\Samples\Samp #
#                          leApp\CC2530DB\..\..\..\Tools\CC2530DB\f8wConfig.c #
#                          fg (-DZIGBEEPRO -DSECURE=0 -DZG_SECURE_DYNAMIC=0   #
#                          -DREFLECTOR -DDEFAULT_CHANLIST=0x00000800          #
#                          -DZDAPP_CONFIG_PAN_ID=0xFF00                       #
#                          -DNWK_START_DELAY=100 -DEXTENDED_JOINING_RANDOM_MA #
#                          SK=0x007F -DBEACON_REQUEST_DELAY=100               #
#                          -DBEACON_REQ_DELAY_MASK=0x00FF                     #
#                          -DLINK_STATUS_JITTER_MASK=0x007F                   #
#                          -DROUTE_EXPIRY_TIME=30 -DAPSC_ACK_WAIT_DURATION_PO #
#                          LLED=3000 -DNWK_INDIRECT_MSG_TIMEOUT=7             #
#                          -DMAX_RREQ_ENTRIES=8 -DAPSC_MAX_FRAME_RETRIES=3    #
#                          -DNWK_MAX_DATA_RETRIES=2                           #
#                          -DMAX_POLL_FAILURE_RETRIES=2 -DMAX_BCAST=9         #
#                          -DAPS_MAX_GROUPS=16 -DMAX_RTG_ENTRIES=40           #
#                          -DNWK_MAX_BINDING_ENTRIES=4                        #
#                          -DMAX_BINDING_CLUSTER_IDS=4 "-DDEFAULT_KEY={0x01,  #
#                          0x03, 0x05, 0x07, 0x09, 0x0B, 0x0D, 0x0F, 0x00,    #
#                          0x02, 0x04, 0x06, 0x08, 0x0A, 0x0C, 0x0D}"         #
#                          -DMAC_MAX_FRAME_SIZE=116                           #
#                          -DZDNWKMGR_MIN_TRANSMISSIONS=20 "-DCONST=const     #
#                          __code" -DGENERIC=__generic                        #
#                          -DRFD_RCVC_ALWAYS_ON=FALSE -DPOLL_RATE=1000        #
#                          -DQUEUED_POLL_RATE=100 -DRESPONSE_POLL_RATE=100)   #
#                          -DREJOIN_POLL_RATE=440 E:\毕业设计\code\节点\Proje #
#                          cts\zstack\Samples\SampleApp\Source\SampleApp.c    #
#                          -D ZTOOL_P1 -D xMT_TASK -D xMT_SYS_FUNC -D         #
#                          xMT_ZDO_FUNC -D LCD_SUPPORTED=DEBUG -lC            #
#                          E:\毕业设计\code\节点\Projects\zstack\Samples\Samp #
#                          leApp\CC2530DB\RouterEB\List\ -lA                  #
#                          E:\毕业设计\code\节点\Projects\zstack\Samples\Samp #
#                          leApp\CC2530DB\RouterEB\List\ --diag_suppress      #
#                          Pe001,Pa010 -o E:\毕业设计\code\节点\Projects\zsta #
#                          ck\Samples\SampleApp\CC2530DB\RouterEB\Obj\ -e     #
#                          --no_code_motion --debug --core=plain --dptr=16,1  #
#                          --data_model=large --code_model=banked             #
#                          --calling_convention=xdata_reentrant               #
#                          --place_constants=data_rom --nr_virtual_regs 16    #
#                          -I E:\毕业设计\code\节点\Projects\zstack\Samples\S #
#                          ampleApp\CC2530DB\ -I E:\毕业设计\code\节点\Projec #
#                          ts\zstack\Samples\SampleApp\CC2530DB\..\Source\    #
#                          -I E:\毕业设计\code\节点\Projects\zstack\Samples\S #
#                          ampleApp\CC2530DB\..\..\..\ZMain\TI2530DB\ -I      #
#                          E:\毕业设计\code\节点\Projects\zstack\Samples\Samp #
#                          leApp\CC2530DB\..\..\..\..\..\Components\hal\inclu #
#                          de\ -I E:\毕业设计\code\节点\Projects\zstack\Sampl #
#                          es\SampleApp\CC2530DB\..\..\..\..\..\Components\ha #
#                          l\target\CC2530EB\ -I E:\毕业设计\code\节点\Projec #
#                          ts\zstack\Samples\SampleApp\CC2530DB\..\..\..\..\. #
#                          .\Components\mac\include\ -I                       #
#                          E:\毕业设计\code\节点\Projects\zstack\Samples\Samp #
#                          leApp\CC2530DB\..\..\..\..\..\Components\mac\high_ #
#                          level\ -I E:\毕业设计\code\节点\Projects\zstack\Sa #
#                          mples\SampleApp\CC2530DB\..\..\..\..\..\Components #
#                          \mac\low_level\srf04\ -I                           #
#                          E:\毕业设计\code\节点\Projects\zstack\Samples\Samp #
#                          leApp\CC2530DB\..\..\..\..\..\Components\mac\low_l #
#                          evel\srf04\single_chip\ -I                         #
#                          E:\毕业设计\code\节点\Projects\zstack\Samples\Samp #
#                          leApp\CC2530DB\..\..\..\..\..\Components\mt\ -I    #
#                          E:\毕业设计\code\节点\Projects\zstack\Samples\Samp #
#                          leApp\CC2530DB\..\..\..\..\..\Components\osal\incl #
#                          ude\ -I E:\毕业设计\code\节点\Projects\zstack\Samp #
#                          les\SampleApp\CC2530DB\..\..\..\..\..\Components\s #
#                          ervices\saddr\ -I E:\毕业设计\code\节点\Projects\z #
#                          stack\Samples\SampleApp\CC2530DB\..\..\..\..\..\Co #
#                          mponents\services\sdata\ -I                        #
#                          E:\毕业设计\code\节点\Projects\zstack\Samples\Samp #
#                          leApp\CC2530DB\..\..\..\..\..\Components\stack\af\ #
#                           -I E:\毕业设计\code\节点\Projects\zstack\Samples\ #
#                          SampleApp\CC2530DB\..\..\..\..\..\Components\stack #
#                          \nwk\ -I E:\毕业设计\code\节点\Projects\zstack\Sam #
#                          ples\SampleApp\CC2530DB\..\..\..\..\..\Components\ #
#                          stack\sapi\ -I E:\毕业设计\code\节点\Projects\zsta #
#                          ck\Samples\SampleApp\CC2530DB\..\..\..\..\..\Compo #
#                          nents\stack\sec\ -I E:\毕业设计\code\节点\Projects #
#                          \zstack\Samples\SampleApp\CC2530DB\..\..\..\..\..\ #
#                          Components\stack\sys\ -I                           #
#                          E:\毕业设计\code\节点\Projects\zstack\Samples\Samp #
#                          leApp\CC2530DB\..\..\..\..\..\Components\stack\zdo #
#                          \ -I E:\毕业设计\code\节点\Projects\zstack\Samples #
#                          \SampleApp\CC2530DB\..\..\..\..\..\Components\zmac #
#                          \ -I E:\毕业设计\code\节点\Projects\zstack\Samples #
#                          \SampleApp\CC2530DB\..\..\..\..\..\Components\zmac #
#                          \f8w\ -Ohz                                         #
#    List file          =  E:\毕业设计\code\节点\Projects\zstack\Samples\Samp #
#                          leApp\CC2530DB\RouterEB\List\SampleApp.lst         #
#    Object file        =  E:\毕业设计\code\节点\Projects\zstack\Samples\Samp #
#                          leApp\CC2530DB\RouterEB\Obj\SampleApp.r51          #
#                                                                             #
#                                                                             #
###############################################################################

E:\毕业设计\code\节点\Projects\zstack\Samples\SampleApp\Source\SampleApp.c
      1          /**************************************************************************************************
      2            Filename:       SampleApp.c
      3            Revised:        $Date: 2009-03-18 15:56:27 -0700 (Wed, 18 Mar 2009) $
      4            Revision:       $Revision: 19453 $
      5          
      6            Description:    Sample Application (no Profile).
      7          
      8          
      9            Copyright 2007 Texas Instruments Incorporated. All rights reserved.
     10          
     11            IMPORTANT: Your use of this Software is limited to those specific rights
     12            granted under the terms of a software license agreement between the user
     13            who downloaded the software, his/her employer (which must be your employer)
     14            and Texas Instruments Incorporated (the "License").  You may not use this
     15            Software unless you agree to abide by the terms of the License. The License
     16            limits your use, and you acknowledge, that the Software may not be modified,
     17            copied or distributed unless embedded on a Texas Instruments microcontroller
     18            or used solely and exclusively in conjunction with a Texas Instruments radio
     19            frequency transceiver, which is integrated into your product.  Other than for
     20            the foregoing purpose, you may not use, reproduce, copy, prepare derivative
     21            works of, modify, distribute, perform, display or sell this Software and/or
     22            its documentation for any purpose.
     23          
     24            YOU FURTHER ACKNOWLEDGE AND AGREE THAT THE SOFTWARE AND DOCUMENTATION ARE
     25            PROVIDED AS IS?WITHOUT WARRANTY OF ANY KIND, EITHER EXPRESS OR IMPLIED,
     26            INCLUDING WITHOUT LIMITATION, ANY WARRANTY OF MERCHANTABILITY, TITLE,
     27            NON-INFRINGEMENT AND FITNESS FOR A PARTICULAR PURPOSE. IN NO EVENT SHALL
     28            TEXAS INSTRUMENTS OR ITS LICENSORS BE LIABLE OR OBLIGATED UNDER CONTRACT,
     29            NEGLIGENCE, STRICT LIABILITY, CONTRIBUTION, BREACH OF WARRANTY, OR OTHER
     30            LEGAL EQUITABLE THEORY ANY DIRECT OR INDIRECT DAMAGES OR EXPENSES
     31            INCLUDING BUT NOT LIMITED TO ANY INCIDENTAL, SPECIAL, INDIRECT, PUNITIVE
     32            OR CONSEQUENTIAL DAMAGES, LOST PROFITS OR LOST DATA, COST OF PROCUREMENT
     33            OF SUBSTITUTE GOODS, TECHNOLOGY, SERVICES, OR ANY CLAIMS BY THIRD PARTIES
     34            (INCLUDING BUT NOT LIMITED TO ANY DEFENSE THEREOF), OR OTHER SIMILAR COSTS.
     35          
     36            Should you have any questions regarding your right to use this Software,
     37            contact Texas Instruments Incorporated at www.TI.com.
     38          **************************************************************************************************/
     39          
     40          /*********************************************************************
     41            This application isn't intended to do anything useful, it is
     42            intended to be a simple example of an application's structure.
     43          
     44            This application sends it's messages either as broadcast or
     45            broadcast filtered group messages.  The other (more normal)
     46            message addressing is unicast.  Most of the other sample
     47            applications are written to support the unicast message model.
     48          
     49            Key control:
     50              SW1:  Sends a flash command to all devices in Group 1.
     51              SW2:  Adds/Removes (toggles) this device in and out
     52                    of Group 1.  This will enable and disable the
     53                    reception of the flash command.
     54          *********************************************************************/
     55          
     56          /*********************************************************************
     57           * INCLUDES
     58           */
     59          #include "OSAL.h"
     60          #include "ZGlobals.h"
     61          #include "AF.h"
     62          #include "aps_groups.h"
     63          #include "ZDApp.h"
     64          
     65          #include "SampleApp.h"
     66          #include "SampleAppHw.h"
     67          
     68          #include "OnBoard.h"

   \                                 In  segment SFR_AN, at 0xa0
   \   union <unnamed> volatile __sfr _A_P2
   \                     _A_P2:
   \   000000                DS 1

   \                                 In  segment SFR_AN, at 0xf3
   \   unsigned char volatile __sfr P0SEL
   \                     P0SEL:
   \   000000                DS 1

   \                                 In  segment SFR_AN, at 0xf5
   \   unsigned char volatile __sfr P2SEL
   \                     P2SEL:
   \   000000                DS 1

   \                                 In  segment SFR_AN, at 0xf7
   \   unsigned char volatile __sfr P2INP
   \                     P2INP:
   \   000000                DS 1

   \                                 In  segment SFR_AN, at 0xff
   \   unsigned char volatile __sfr P2DIR
   \                     P2DIR:
   \   000000                DS 1
     69          
     70          /* HAL */
     71          #include "hal_lcd.h"
     72          #include "hal_led.h"
     73          #include "hal_key.h"
     74          
     75          #include  "MT_UART.h" //此处用于串口
     76          #include  "MT.h"
     77          
     78          /*for sensor*/
     79          #include "DHT11.h"
     80          #include "ds18b20.h"
     81          #define SENSORTYPE DHT11 //chose sensor type
     82          #define LIGHT P2_0
     83          /*********************************************************************
     84           * MACROS
     85           */
     86          
     87          /*********************************************************************
     88           * CONSTANTS
     89           */
     90          
     91          /*********************************************************************
     92           * TYPEDEFS
     93           */
     94          
     95          /*********************************************************************
     96           * GLOBAL VARIABLES
     97           */
     98          
     99          // This list should be filled with Application specific Cluster IDs.

   \                                 In  segment XDATA_ROM_C, align 1
    100          const cId_t SampleApp_ClusterList[SAMPLEAPP_MAX_CLUSTERS] =
   \                     SampleApp_ClusterList:
   \   000000   0100         DW 1
   \   000002   0200         DW 2
   \   000004   0000         DW 0
   \   000006   0000         DW 0
    101          {
    102            SAMPLEAPP_PERIODIC_CLUSTERID,
    103            SAMPLEAPP_FLASH_CLUSTERID
    104          };
    105          

   \                                 In  segment XDATA_ROM_C, align 1
    106          const SimpleDescriptionFormat_t SampleApp_SimpleDesc =
   \                     SampleApp_SimpleDesc:
   \   000000   14           DB 20
   \   000001   080F         DW 3848
   \   000003   0100         DW 1
   \   000005   00           DB 0
   \   000006   04           DB 4
   \   000007   ....         DW SampleApp_ClusterList
   \   000009   04           DB 4
   \   00000A   ....         DW SampleApp_ClusterList
    107          {
    108            SAMPLEAPP_ENDPOINT,              //  int Endpoint;
    109            SAMPLEAPP_PROFID,                //  uint16 AppProfId[2];
    110            SAMPLEAPP_DEVICEID,              //  uint16 AppDeviceId[2];
    111            SAMPLEAPP_DEVICE_VERSION,        //  int   AppDevVer:4;
    112            SAMPLEAPP_FLAGS,                 //  int   AppFlags:4;
    113            SAMPLEAPP_MAX_CLUSTERS,          //  uint8  AppNumInClusters;
    114            (cId_t *)SampleApp_ClusterList,  //  uint8 *pAppInClusterList;
    115            SAMPLEAPP_MAX_CLUSTERS,          //  uint8  AppNumInClusters;
    116            (cId_t *)SampleApp_ClusterList   //  uint8 *pAppInClusterList;
    117          };
    118          
    119          // This is the Endpoint/Interface description.  It is defined here, but
    120          // filled-in in SampleApp_Init().  Another way to go would be to fill
    121          // in the structure here and make it a "const" (in code space).  The
    122          // way it's defined in this sample app it is define in RAM.

   \                                 In  segment XDATA_Z, align 1, keep-with-next
    123          endPointDesc_t SampleApp_epDesc;
   \                     SampleApp_epDesc:
   \   000000                DS 6
   \   000006                REQUIRE __INIT_XDATA_Z
    124          
    125          /*********************************************************************
    126           * EXTERNAL VARIABLES
    127           */
    128          
    129          /*********************************************************************
    130           * EXTERNAL FUNCTIONS
    131           */
    132          
    133          /*********************************************************************
    134           * LOCAL VARIABLES
    135           */

   \                                 In  segment XDATA_Z, align 1, keep-with-next
    136          uint8 SampleApp_TaskID;   // Task ID for internal task/event processing
   \                     SampleApp_TaskID:
   \   000000                DS 1
   \   000001                REQUIRE __INIT_XDATA_Z
    137                                    // This variable will be received when
    138                                    // SampleApp_Init() is called.

   \                                 In  segment XDATA_Z, align 1, keep-with-next
    139          devStates_t SampleApp_NwkState;
   \                     SampleApp_NwkState:
   \   000000                DS 1
   \   000001                REQUIRE __INIT_XDATA_Z
    140          

   \                                 In  segment XDATA_Z, align 1, keep-with-next
    141          uint8 SampleApp_TransID;  // This is the unique message ID (counter)
   \                     SampleApp_TransID:
   \   000000                DS 1
   \   000001                REQUIRE __INIT_XDATA_Z
    142          
    143          /*contact method*/

   \                                 In  segment XDATA_Z, align 1, keep-with-next
    144          afAddrType_t SampleApp_Periodic_DstAddr;
   \                     SampleApp_Periodic_DstAddr:
   \   000000                DS 12
   \   00000C                REQUIRE __INIT_XDATA_Z

   \                                 In  segment XDATA_Z, align 1, keep-with-next
    145          afAddrType_t SampleApp_Flash_DstAddr;
   \                     SampleApp_Flash_DstAddr:
   \   000000                DS 12
   \   00000C                REQUIRE __INIT_XDATA_Z

   \                                 In  segment XDATA_Z, align 1, keep-with-next
    146          afAddrType_t Point_To_Point_DstAddr;
   \                     Point_To_Point_DstAddr:
   \   000000                DS 12
   \   00000C                REQUIRE __INIT_XDATA_Z
    147          

   \                                 In  segment XDATA_Z, align 1, keep-with-next
    148          aps_Group_t SampleApp_Group;
   \                     SampleApp_Group:
   \   000000                DS 18
   \   000012                REQUIRE __INIT_XDATA_Z
    149          

   \                                 In  segment XDATA_Z, align 1, keep-with-next
    150          uint8 SampleAppPeriodicCounter = 0;
   \                     SampleAppPeriodicCounter:
   \   000000                DS 1
   \   000001                REQUIRE __INIT_XDATA_Z

   \                                 In  segment XDATA_Z, align 1, keep-with-next
    151          uint8 SampleAppFlashCounter = 0;
   \                     SampleAppFlashCounter:
   \   000000                DS 1
   \   000001                REQUIRE __INIT_XDATA_Z
    152          
    153          /*********************************************************************
    154           * LOCAL FUNCTIONS
    155           */
    156          void SampleApp_HandleKeys( uint8 shift, uint8 keys );
    157          void SampleApp_MessageMSGCB( afIncomingMSGPacket_t *pckt );
    158          void SampleApp_SendPeriodicMessage( void );
    159          void SampleApp_SendFlashMessage( uint16 flashTime );
    160          void SampleApp_SerialCMD(mtOSALSerialData_t *cmdMsg);
    161          void Sample_SendPointToPointMessage(void);
    162          void PrintSnesorData(uint8 sensortype);
    163          /*********************************************************************
    164           * NETWORK LAYER CALLBACKS
    165           */
    166          
    167          /*********************************************************************
    168           * PUBLIC FUNCTIONS
    169           */
    170          
    171          /*********************************************************************
    172           * @fn      SampleApp_Init
    173           *
    174           * @brief   Initialization function for the Generic App Task.
    175           *          This is called during initialization and should contain
    176           *          any application specific initialization (ie. hardware
    177           *          initialization/setup, table initialization, power up
    178           *          notificaiton ... ).
    179           *
    180           * @param   task_id - the ID assigned by OSAL.  This ID should be
    181           *                    used to send messages and set timers.
    182           *
    183           * @return  none
    184           */

   \                                 In  segment BANKED_CODE, align 1, keep-with-next
    185          void SampleApp_Init( uint8 task_id )
   \                     SampleApp_Init:
    186          {
   \   000000   74F5         MOV     A,#-0xb
   \   000002   12....       LCALL   ?BANKED_ENTER_XDATA
   \   000005                ; Saved register size: 11
   \   000005                ; Auto size: 0
   \   000005   E9           MOV     A,R1
   \   000006   FE           MOV     R6,A
    187            SampleApp_TaskID = task_id;
   \   000007   90....       MOV     DPTR,#SampleApp_TaskID
   \   00000A   F0           MOVX    @DPTR,A
    188            SampleApp_NwkState = DEV_INIT;
   \   00000B   90....       MOV     DPTR,#SampleApp_NwkState
   \   00000E   7401         MOV     A,#0x1
   \   000010   F0           MOVX    @DPTR,A
    189            SampleApp_TransID = 0;
   \   000011   90....       MOV     DPTR,#SampleApp_TransID
   \   000014   E4           CLR     A
   \   000015   F0           MOVX    @DPTR,A
    190            
    191            MT_UartInit();//串口初始化
   \   000016                ; Setup parameters for call to function MT_UartInit
   \   000016   12....       LCALL   ??MT_UartInit?relay
    192            MT_UartRegisterTaskID(task_id);//登记任务号
   \   000019                ; Setup parameters for call to function MT_UartRegisterTaskID
   \   000019   EE           MOV     A,R6
   \   00001A   F9           MOV     R1,A
   \   00001B   12....       LCALL   ??MT_UartRegisterTaskID?relay
    193            HalUARTWrite(0,"Hello World\n",12); //（串口0，'字符'，字符个数。）
   \   00001E                ; Setup parameters for call to function HalUARTWrite
   \   00001E   7C0C         MOV     R4,#0xc
   \   000020   7D00         MOV     R5,#0x0
   \   000022   7A..         MOV     R2,#`?<Constant "Hello World\\n">` & 0xff
   \   000024   7B..         MOV     R3,#(`?<Constant "Hello World\\n">` >> 8) & 0xff
   \   000026   7900         MOV     R1,#0x0
   \   000028   12....       LCALL   ??HalUARTWrite?relay
    194            
    195            /*sensor init*/
    196            P0SEL &=0xbf;//dht11 init
   \   00002B   53F3BF       ANL     0xf3,#0xbf
    197            
    198            P2SEL &=~0x01;
   \   00002E   53F5FE       ANL     0xf5,#0xfe
    199            P2DIR &=~0x01;
   \   000031   53FFFE       ANL     0xff,#0xfe
    200            P2INP &=~0x01;//light sensor init
   \   000034   53F7FE       ANL     0xf7,#0xfe
    201            
    202            // Device hardware initialization can be added here or in main() (Zmain.c).
    203            // If the hardware is application specific - add it here.
    204            // If the hardware is other parts of the device add it in main().
    205          
    206           #if defined ( BUILD_ALL_DEVICES )
    207            // The "Demo" target is setup to have BUILD_ALL_DEVICES and HOLD_AUTO_START
    208            // We are looking at a jumper (defined in SampleAppHw.c) to be jumpered
    209            // together - if they are - we will start up a coordinator. Otherwise,
    210            // the device will start as a router.
    211            if ( readCoordinatorJumper() )
    212              zgDeviceLogicalType = ZG_DEVICETYPE_COORDINATOR;
    213            else
    214              zgDeviceLogicalType = ZG_DEVICETYPE_ROUTER;
    215          #endif // BUILD_ALL_DEVICES
    216          
    217          #if defined ( HOLD_AUTO_START )
    218            // HOLD_AUTO_START is a compile option that will surpress ZDApp
    219            //  from starting the device and wait for the application to
    220            //  start the device.
    221            ZDOInitDevice(0);
    222          #endif
    223          
    224            // Setup for the periodic message's destination address
    225            // Broadcast to everyone
    226            SampleApp_Periodic_DstAddr.addrMode = (afAddrMode_t)AddrBroadcast;
   \   000037   90....       MOV     DPTR,#SampleApp_Periodic_DstAddr + 8
   \   00003A   740F         MOV     A,#0xf
   \   00003C   F0           MOVX    @DPTR,A
    227            SampleApp_Periodic_DstAddr.endPoint = SAMPLEAPP_ENDPOINT;
   \   00003D   A3           INC     DPTR
   \   00003E   7414         MOV     A,#0x14
   \   000040   F0           MOVX    @DPTR,A
    228            SampleApp_Periodic_DstAddr.addr.shortAddr = 0xFFFF;
   \   000041   90....       MOV     DPTR,#SampleApp_Periodic_DstAddr
   \   000044   74FF         MOV     A,#-0x1
   \   000046   F0           MOVX    @DPTR,A
   \   000047   A3           INC     DPTR
   \   000048   F0           MOVX    @DPTR,A
    229          
    230            // Setup for the flash command's destination address - Group 1
    231            SampleApp_Flash_DstAddr.addrMode = (afAddrMode_t)afAddrGroup;
   \   000049   90....       MOV     DPTR,#SampleApp_Flash_DstAddr + 8
   \   00004C   7401         MOV     A,#0x1
   \   00004E   F0           MOVX    @DPTR,A
    232            SampleApp_Flash_DstAddr.endPoint = SAMPLEAPP_ENDPOINT;
   \   00004F   A3           INC     DPTR
   \   000050   7414         MOV     A,#0x14
   \   000052   F0           MOVX    @DPTR,A
    233            SampleApp_Flash_DstAddr.addr.shortAddr = SAMPLEAPP_FLASH_GROUP;
   \   000053   90....       MOV     DPTR,#SampleApp_Flash_DstAddr
   \   000056   7401         MOV     A,#0x1
   \   000058   F0           MOVX    @DPTR,A
   \   000059   A3           INC     DPTR
   \   00005A   E4           CLR     A
   \   00005B   F0           MOVX    @DPTR,A
    234          
    235            //Setup for the Point to Point message's destination address
    236            Point_To_Point_DstAddr.addrMode=(afAddrMode_t)Addr16Bit;
   \   00005C   90....       MOV     DPTR,#Point_To_Point_DstAddr + 8
   \   00005F   7402         MOV     A,#0x2
   \   000061   F0           MOVX    @DPTR,A
    237            Point_To_Point_DstAddr.endPoint=SAMPLEAPP_ENDPOINT;
   \   000062   A3           INC     DPTR
   \   000063   7414         MOV     A,#0x14
   \   000065   F0           MOVX    @DPTR,A
    238            Point_To_Point_DstAddr.addr.shortAddr=0x0000;
   \   000066   90....       MOV     DPTR,#Point_To_Point_DstAddr
   \   000069   E4           CLR     A
   \   00006A   F0           MOVX    @DPTR,A
   \   00006B   A3           INC     DPTR
   \   00006C   F0           MOVX    @DPTR,A
    239          
    240            // Fill out the endpoint description.
    241            SampleApp_epDesc.endPoint = SAMPLEAPP_ENDPOINT;
   \   00006D   90....       MOV     DPTR,#SampleApp_epDesc
   \   000070   7414         MOV     A,#0x14
   \   000072   F0           MOVX    @DPTR,A
    242            SampleApp_epDesc.task_id = &SampleApp_TaskID;
   \   000073   A3           INC     DPTR
   \   000074   74..         MOV     A,#SampleApp_TaskID & 0xff
   \   000076   F0           MOVX    @DPTR,A
   \   000077   A3           INC     DPTR
   \   000078   74..         MOV     A,#(SampleApp_TaskID >> 8) & 0xff
   \   00007A   F0           MOVX    @DPTR,A
    243            SampleApp_epDesc.simpleDesc
    244                      = (SimpleDescriptionFormat_t *)&SampleApp_SimpleDesc;
   \   00007B   A3           INC     DPTR
   \   00007C   74..         MOV     A,#SampleApp_SimpleDesc & 0xff
   \   00007E   F0           MOVX    @DPTR,A
   \   00007F   A3           INC     DPTR
   \   000080   74..         MOV     A,#(SampleApp_SimpleDesc >> 8) & 0xff
   \   000082   F0           MOVX    @DPTR,A
    245            SampleApp_epDesc.latencyReq = noLatencyReqs;
   \   000083   A3           INC     DPTR
   \   000084   E4           CLR     A
   \   000085   F0           MOVX    @DPTR,A
    246          
    247            // Register the endpoint description with the AF
    248            afRegister( &SampleApp_epDesc );
   \   000086                ; Setup parameters for call to function afRegister
   \   000086   7A..         MOV     R2,#SampleApp_epDesc & 0xff
   \   000088   7B..         MOV     R3,#(SampleApp_epDesc >> 8) & 0xff
   \   00008A   12....       LCALL   ??afRegister?relay
    249          
    250            // Register for all key events - This app will handle all key events
    251            RegisterForKeys( SampleApp_TaskID );
   \   00008D                ; Setup parameters for call to function RegisterForKeys
   \   00008D   90....       MOV     DPTR,#SampleApp_TaskID
   \   000090   E0           MOVX    A,@DPTR
   \   000091   F9           MOV     R1,A
   \   000092   12....       LCALL   ??RegisterForKeys?relay
    252          
    253            // By default, all devices start out in Group 1
    254            SampleApp_Group.ID = 0x0001;
   \   000095   90....       MOV     DPTR,#SampleApp_Group
   \   000098   7401         MOV     A,#0x1
   \   00009A   F0           MOVX    @DPTR,A
   \   00009B   A3           INC     DPTR
   \   00009C   E4           CLR     A
   \   00009D   F0           MOVX    @DPTR,A
    255            osal_memcpy( SampleApp_Group.name, "Group 1", 7  );
   \   00009E                ; Setup parameters for call to function osal_memcpy
   \   00009E   75....       MOV     ?V0 + 0,#`?<Constant "Group 1">` & 0xff
   \   0000A1   75....       MOV     ?V0 + 1,#(`?<Constant "Group 1">` >> 8) & 0xff
   \   0000A4   F5..         MOV     ?V0 + 2,A
   \   0000A6   78..         MOV     R0,#?V0 + 0
   \   0000A8   12....       LCALL   ?PUSH_XSTACK_I_THREE
   \   0000AB   7C07         MOV     R4,#0x7
   \   0000AD   7D00         MOV     R5,#0x0
   \   0000AF   7A..         MOV     R2,#(SampleApp_Group + 2) & 0xff
   \   0000B1   7B..         MOV     R3,#((SampleApp_Group + 2) >> 8) & 0xff
   \   0000B3   12....       LCALL   ??osal_memcpy?relay
   \   0000B6   7403         MOV     A,#0x3
   \   0000B8   12....       LCALL   ?DEALLOC_XSTACK8
    256            aps_AddGroup( SAMPLEAPP_ENDPOINT, &SampleApp_Group );
   \   0000BB                ; Setup parameters for call to function aps_AddGroup
   \   0000BB   7A..         MOV     R2,#SampleApp_Group & 0xff
   \   0000BD   7B..         MOV     R3,#(SampleApp_Group >> 8) & 0xff
   \   0000BF   7914         MOV     R1,#0x14
   \   0000C1   12....       LCALL   ??aps_AddGroup?relay
    257          
    258          #if defined ( LCD_SUPPORTED )
    259            HalLcdWriteString( "SampleApp", HAL_LCD_LINE_1 );
   \   0000C4                ; Setup parameters for call to function HalLcdWriteString
   \   0000C4   7901         MOV     R1,#0x1
   \   0000C6   7A..         MOV     R2,#`?<Constant "SampleApp">` & 0xff
   \   0000C8   7B..         MOV     R3,#(`?<Constant "SampleApp">` >> 8) & 0xff
   \   0000CA   12....       LCALL   ??HalLcdWriteString?relay
    260          #endif
    261          }
   \   0000CD   7F03         MOV     R7,#0x3
   \   0000CF   02....       LJMP    ?BANKED_LEAVE_XDATA
   \   0000D2                REQUIRE P0SEL
   \   0000D2                REQUIRE P2SEL
   \   0000D2                REQUIRE P2DIR
   \   0000D2                REQUIRE P2INP
    262          
    263          /*********************************************************************
    264           * @fn      SampleApp_ProcessEvent
    265           *
    266           * @brief   Generic Application Task event processor.  This function
    267           *          is called to process all events for the task.  Events
    268           *          include timers, messages and any other user defined events.
    269           *
    270           * @param   task_id  - The OSAL assigned task ID.
    271           * @param   events - events to process.  This is a bit map and can
    272           *                   contain more than one event.
    273           *
    274           * @return  none
    275           */

   \                                 In  segment BANKED_CODE, align 1, keep-with-next
    276          uint16 SampleApp_ProcessEvent( uint8 task_id, uint16 events )
   \                     SampleApp_ProcessEvent:
    277          {
   \   000000   74F4         MOV     A,#-0xc
   \   000002   12....       LCALL   ?BANKED_ENTER_XDATA
   \   000005                ; Saved register size: 12
   \   000005                ; Auto size: 0
   \   000005   EA           MOV     A,R2
   \   000006   FE           MOV     R6,A
   \   000007   EB           MOV     A,R3
   \   000008   FF           MOV     R7,A
    278            afIncomingMSGPacket_t *MSGpkt;
    279            (void)task_id;  // Intentionally unreferenced parameter
    280          
    281            if ( events & SYS_EVENT_MSG )
   \   000009   5480         ANL     A,#0x80
   \   00000B   7003         JNZ     $+5
   \   00000D   02....       LJMP    ??SampleApp_ProcessEvent_0 & 0xFFFF
    282            {
    283              MSGpkt = (afIncomingMSGPacket_t *)osal_msg_receive( SampleApp_TaskID );
   \   000010                ; Setup parameters for call to function osal_msg_receive
   \   000010   8026         SJMP    ??SampleApp_ProcessEvent_1
    284              while ( MSGpkt )
    285              {
    286                switch ( MSGpkt->hdr.event )
    287                {
    288                  case CMD_SERIAL_MSG:  //串口收到数据后由MT_UART层传递过来的数据，用网蜂方法接收，编译时不定义MT相关内容 
    289                   SampleApp_SerialCMD((mtOSALSerialData_t *)MSGpkt);
    290                   break;
    291          
    292                  // Received when a key is pressed
    293                    case KEY_CHANGE:
    294                    SampleApp_HandleKeys( ((keyChange_t *)MSGpkt)->state, ((keyChange_t *)MSGpkt)->keys );
    295                    break;
    296          
    297                  // Received when a messages is received (OTA) for this endpoint
    298                  case AF_INCOMING_MSG_CMD:
    299                    SampleApp_MessageMSGCB( MSGpkt );
    300                    break;
    301          
    302                  // Received whenever the device changes state in the network
    303                  case ZDO_STATE_CHANGE:
    304                    SampleApp_NwkState = (devStates_t)(MSGpkt->hdr.status);
   \                     ??SampleApp_ProcessEvent_2:
   \   000012   A3           INC     DPTR
   \   000013   E0           MOVX    A,@DPTR
   \   000014   90....       MOV     DPTR,#SampleApp_NwkState
   \   000017   F0           MOVX    @DPTR,A
    305                    if ( //(SampleApp_NwkState == DEV_ZB_COORD)   
    306                         (SampleApp_NwkState == DEV_ROUTER)
    307                        || (SampleApp_NwkState == DEV_END_DEVICE) )
   \   000018   6407         XRL     A,#0x7
   \   00001A   6005         JZ      ??SampleApp_ProcessEvent_3
   \   00001C   E0           MOVX    A,@DPTR
   \   00001D   6406         XRL     A,#0x6
   \   00001F   7010         JNZ     ??SampleApp_ProcessEvent_4
    308                    {
    309                      // Start sending the periodic message in a regular interval.
    310                      osal_start_timerEx( SampleApp_TaskID,
    311                                        SAMPLEAPP_SEND_PERIODIC_MSG_EVT,
    312                                        SAMPLEAPP_SEND_PERIODIC_MSG_TIMEOUT );
   \                     ??SampleApp_ProcessEvent_3:
   \   000021                ; Setup parameters for call to function osal_start_timerEx
   \   000021   7CE8         MOV     R4,#-0x18
   \   000023   7D03         MOV     R5,#0x3
   \   000025   7A01         MOV     R2,#0x1
   \   000027   7B00         MOV     R3,#0x0
   \   000029   90....       MOV     DPTR,#SampleApp_TaskID
   \   00002C   E0           MOVX    A,@DPTR
   \   00002D   F9           MOV     R1,A
   \   00002E   12....       LCALL   ??osal_start_timerEx?relay
    313                    }
    314                    else
    315                    {
    316                      // Device is no longer in the network
    317                    }
    318                    break;
    319          
    320                  default:
    321                    break;
    322                }
    323          
    324                // Release the memory
    325                osal_msg_deallocate( (uint8 *)MSGpkt );
   \                     ??SampleApp_ProcessEvent_4:
   \   000031                ; Setup parameters for call to function osal_msg_deallocate
   \   000031   AA..         MOV     R2,?V0 + 0
   \   000033   AB..         MOV     R3,?V0 + 1
   \   000035   12....       LCALL   ??osal_msg_deallocate?relay
    326          
    327                // Next - if one is available
    328                MSGpkt = (afIncomingMSGPacket_t *)osal_msg_receive( SampleApp_TaskID );
   \   000038                ; Setup parameters for call to function osal_msg_receive
   \                     ??SampleApp_ProcessEvent_1:
   \   000038   90....       MOV     DPTR,#SampleApp_TaskID
   \   00003B   E0           MOVX    A,@DPTR
   \   00003C   F9           MOV     R1,A
   \   00003D   12....       LCALL   ??osal_msg_receive?relay
   \   000040   8A..         MOV     ?V0 + 0,R2
   \   000042   8B..         MOV     ?V0 + 1,R3
   \   000044   E5..         MOV     A,?V0 + 0
   \   000046   45..         ORL     A,?V0 + 1
   \   000048   603E         JZ      ??SampleApp_ProcessEvent_5
   \   00004A   85..82       MOV     DPL,?V0 + 0
   \   00004D   85..83       MOV     DPH,?V0 + 1
   \   000050   E0           MOVX    A,@DPTR
   \   000051   14           DEC     A
   \   000052   600E         JZ      ??SampleApp_ProcessEvent_6
   \   000054   24E7         ADD     A,#-0x19
   \   000056   6027         JZ      ??SampleApp_ProcessEvent_7
   \   000058   245A         ADD     A,#0x5a
   \   00005A   600F         JZ      ??SampleApp_ProcessEvent_8
   \   00005C   24EF         ADD     A,#-0x11
   \   00005E   60B2         JZ      ??SampleApp_ProcessEvent_2
   \   000060   80CF         SJMP    ??SampleApp_ProcessEvent_4
   \                     ??SampleApp_ProcessEvent_6:
   \   000062                ; Setup parameters for call to function SampleApp_SerialCMD
   \   000062   AA..         MOV     R2,?V0 + 0
   \   000064   AB..         MOV     R3,?V0 + 1
   \   000066   12....       LCALL   ??SampleApp_SerialCMD?relay
   \   000069   80C6         SJMP    ??SampleApp_ProcessEvent_4
   \                     ??SampleApp_ProcessEvent_8:
   \   00006B                ; Setup parameters for call to function SampleApp_HandleKeys
   \   00006B   A3           INC     DPTR
   \   00006C   A3           INC     DPTR
   \   00006D   A3           INC     DPTR
   \   00006E   E0           MOVX    A,@DPTR
   \   00006F   FA           MOV     R2,A
   \   000070   85..82       MOV     DPL,?V0 + 0
   \   000073   85..83       MOV     DPH,?V0 + 1
   \   000076   A3           INC     DPTR
   \   000077   A3           INC     DPTR
   \   000078   E0           MOVX    A,@DPTR
   \   000079   F9           MOV     R1,A
   \   00007A   12....       LCALL   ??SampleApp_HandleKeys?relay
   \   00007D   80B2         SJMP    ??SampleApp_ProcessEvent_4
   \                     ??SampleApp_ProcessEvent_7:
   \   00007F                ; Setup parameters for call to function SampleApp_MessageMSGCB
   \   00007F   AA..         MOV     R2,?V0 + 0
   \   000081   AB..         MOV     R3,?V0 + 1
   \   000083   12....       LCALL   ??SampleApp_MessageMSGCB?relay
   \   000086   80A9         SJMP    ??SampleApp_ProcessEvent_4
    329              }
    330          
    331              // return unprocessed events
    332              return (events ^ SYS_EVENT_MSG);
   \                     ??SampleApp_ProcessEvent_5:
   \   000088   EE           MOV     A,R6
   \   000089   FA           MOV     R2,A
   \   00008A   EF           MOV     A,R7
   \   00008B   6480         XRL     A,#0x80
   \                     ??SampleApp_ProcessEvent_9:
   \   00008D   FB           MOV     R3,A
   \   00008E   802F         SJMP    ??SampleApp_ProcessEvent_10
    333            }
    334          
    335            // Send a message out - This event is generated by a timer
    336            //  (setup in SampleApp_Init()).
    337            if ( events & SAMPLEAPP_SEND_PERIODIC_MSG_EVT )
   \                     ??SampleApp_ProcessEvent_0:
   \   000090   EE           MOV     A,R6
   \   000091   A2E0         MOV     C,0xE0 /* A   */.0
   \   000093   5026         JNC     ??SampleApp_ProcessEvent_11
    338            {
    339              PrintSnesorData(SENSORTYPE);
   \   000095                ; Setup parameters for call to function PrintSnesorData
   \   000095   7901         MOV     R1,#0x1
   \   000097   12....       LCALL   ??PrintSnesorData?relay
    340              
    341              // Send the periodic message
    342              //SampleApp_SendPeriodicMessage();
    343          
    344              // Send the PointToPoin message
    345              Sample_SendPointToPointMessage();
   \   00009A                ; Setup parameters for call to function Sample_SendPointToPointMessage
   \   00009A   12....       LCALL   ??Sample_SendPointToPointMessage?relay
    346          
    347              // Setup to send message again in normal period (+ a little jitter)
    348              osal_start_timerEx( SampleApp_TaskID, SAMPLEAPP_SEND_PERIODIC_MSG_EVT,
    349                  (SAMPLEAPP_SEND_PERIODIC_MSG_TIMEOUT + (osal_rand() & 0x00FF)) );
   \   00009D                ; Setup parameters for call to function osal_rand
   \   00009D   12....       LCALL   ??osal_rand?relay
   \   0000A0                ; Setup parameters for call to function osal_start_timerEx
   \   0000A0   EA           MOV     A,R2
   \   0000A1   24E8         ADD     A,#-0x18
   \   0000A3   FC           MOV     R4,A
   \   0000A4   E4           CLR     A
   \   0000A5   3403         ADDC    A,#0x3
   \   0000A7   FD           MOV     R5,A
   \   0000A8   7A01         MOV     R2,#0x1
   \   0000AA   7B00         MOV     R3,#0x0
   \   0000AC   90....       MOV     DPTR,#SampleApp_TaskID
   \   0000AF   E0           MOVX    A,@DPTR
   \   0000B0   F9           MOV     R1,A
   \   0000B1   12....       LCALL   ??osal_start_timerEx?relay
    350          
    351              // return unprocessed events
    352              return (events ^ SAMPLEAPP_SEND_PERIODIC_MSG_EVT);
   \   0000B4   EE           MOV     A,R6
   \   0000B5   6401         XRL     A,#0x1
   \   0000B7   FA           MOV     R2,A
   \   0000B8   EF           MOV     A,R7
   \   0000B9   80D2         SJMP    ??SampleApp_ProcessEvent_9
    353            }
    354          
    355            // Discard unknown events
    356            return 0;
   \                     ??SampleApp_ProcessEvent_11:
   \   0000BB   7A00         MOV     R2,#0x0
   \   0000BD   7B00         MOV     R3,#0x0
   \                     ??SampleApp_ProcessEvent_10:
   \   0000BF   02....       LJMP    ??Subroutine16_0 & 0xFFFF
    357          }

   \                                 In  segment BANKED_CODE, align 1, keep-with-next
   \                     ??Subroutine16_0:
   \   000000   7F04         MOV     R7,#0x4
   \   000002   02....       LJMP    ?BANKED_LEAVE_XDATA
    358          
    359          /*********************************************************************
    360           * Event Generation Functions
    361           */
    362          /*********************************************************************
    363           * @fn      SampleApp_HandleKeys
    364           *
    365           * @brief   Handles all key events for this device.
    366           *
    367           * @param   shift - true if in shift/alt.
    368           * @param   keys - bit field for key events. Valid entries:
    369           *                 HAL_KEY_SW_2
    370           *                 HAL_KEY_SW_1
    371           *
    372           * @return  none
    373           */

   \                                 In  segment BANKED_CODE, align 1, keep-with-next
    374          void SampleApp_HandleKeys( uint8 shift, uint8 keys )
   \                     SampleApp_HandleKeys:
    375          {
   \   000000   74F6         MOV     A,#-0xa
   \   000002   12....       LCALL   ?BANKED_ENTER_XDATA
   \   000005                ; Saved register size: 10
   \   000005                ; Auto size: 0
   \   000005   EA           MOV     A,R2
   \   000006   FE           MOV     R6,A
    376            (void)shift;  // Intentionally unreferenced parameter
    377            
    378            if ( keys & HAL_KEY_SW_1 )
   \   000007   A2E0         MOV     C,0xE0 /* A   */.0
   \   000009   5007         JNC     ??SampleApp_HandleKeys_0
    379            {
    380              /* This key sends the Flash Command is sent to Group 1.
    381               * This device will not receive the Flash Command from this
    382               * device (even if it belongs to group 1).
    383               */
    384              SampleApp_SendFlashMessage( SAMPLEAPP_FLASH_DURATION );
   \   00000B                ; Setup parameters for call to function SampleApp_SendFlashMessage
   \   00000B   7AE8         MOV     R2,#-0x18
   \   00000D   7B03         MOV     R3,#0x3
   \   00000F   12....       LCALL   ??SampleApp_SendFlashMessage?relay
    385            }
    386          
    387            if ( keys & HAL_KEY_SW_2 )
   \                     ??SampleApp_HandleKeys_0:
   \   000012   EE           MOV     A,R6
   \   000013   A2E1         MOV     C,0xE0 /* A   */.1
   \   000015   5024         JNC     ??SampleApp_HandleKeys_1
    388            {
    389              /* The Flashr Command is sent to Group 1.
    390               * This key toggles this device in and out of group 1.
    391               * If this device doesn't belong to group 1, this application
    392               * will not receive the Flash command sent to group 1.
    393               */
    394              aps_Group_t *grp;
    395              grp = aps_FindGroup( SAMPLEAPP_ENDPOINT, SAMPLEAPP_FLASH_GROUP );
    396              if ( grp )
   \   000017                ; Setup parameters for call to function aps_FindGroup
   \   000017   7A01         MOV     R2,#0x1
   \   000019   7B00         MOV     R3,#0x0
   \   00001B   7914         MOV     R1,#0x14
   \   00001D   12....       LCALL   ??aps_FindGroup?relay
   \   000020   8B..         MOV     ?V0 + 1,R3
   \   000022   EA           MOV     A,R2
   \   000023   45..         ORL     A,?V0 + 1
   \   000025   600B         JZ      ??SampleApp_HandleKeys_2
    397              {
    398                // Remove from the group
    399                aps_RemoveGroup( SAMPLEAPP_ENDPOINT, SAMPLEAPP_FLASH_GROUP );
   \   000027                ; Setup parameters for call to function aps_RemoveGroup
   \   000027   7A01         MOV     R2,#0x1
   \   000029   7B00         MOV     R3,#0x0
   \   00002B   7914         MOV     R1,#0x14
   \   00002D   12....       LCALL   ??aps_RemoveGroup?relay
   \   000030   8009         SJMP    ??SampleApp_HandleKeys_1
    400              }
    401              else
    402              {
    403                // Add to the flash group
    404                aps_AddGroup( SAMPLEAPP_ENDPOINT, &SampleApp_Group );
   \                     ??SampleApp_HandleKeys_2:
   \   000032                ; Setup parameters for call to function aps_AddGroup
   \   000032   7A..         MOV     R2,#SampleApp_Group & 0xff
   \   000034   7B..         MOV     R3,#(SampleApp_Group >> 8) & 0xff
   \   000036   7914         MOV     R1,#0x14
   \   000038   12....       LCALL   ??aps_AddGroup?relay
    405              }
    406            }
    407          }
   \                     ??SampleApp_HandleKeys_1:
   \   00003B   02....       LJMP    ??Subroutine18_0 & 0xFFFF

   \                                 In  segment BANKED_CODE, align 1, keep-with-next
   \                     ??Subroutine18_0:
   \   000000   7F02         MOV     R7,#0x2
   \   000002   02....       LJMP    ?BANKED_LEAVE_XDATA
    408          
    409          /*********************************************************************
    410           * LOCAL FUNCTIONS
    411           */
    412          
    413          /*********************************************************************
    414           * @fn      SampleApp_MessageMSGCB
    415           *
    416           * @brief   Data message processor callback.  This function processes
    417           *          any incoming data - probably from other devices.  So, based
    418           *          on cluster ID, perform the intended action.
    419           *
    420           * @param   none
    421           *
    422           * @return  none
    423           */

   \                                 In  segment BANKED_CODE, align 1, keep-with-next
    424          void SampleApp_MessageMSGCB( afIncomingMSGPacket_t *pkt )
   \                     SampleApp_MessageMSGCB:
    425          {
   \   000000   74F4         MOV     A,#-0xc
   \   000002   12....       LCALL   ?BANKED_ENTER_XDATA
   \   000005                ; Saved register size: 12
   \   000005                ; Auto size: 16
   \   000005   74F0         MOV     A,#-0x10
   \   000007   12....       LCALL   ?ALLOC_XSTACK8
   \   00000A   8A..         MOV     ?V0 + 0,R2
   \   00000C   8B..         MOV     ?V0 + 1,R3
    426            uint8 asc_16[16]={'0','1','3','4','5','6','7','8','9','A','B','C','D','E','F'};
   \   00000E   85..82       MOV     DPL,?XSP + 0
   \   000011   85..83       MOV     DPH,?XSP + 1
   \   000014   AC82         MOV     R4,DPL
   \   000016   AD83         MOV     R5,DPH
   \   000018   7583..       MOV     DPH,#(`?<Constant {48, 49, 51, 52, 53, 54, 55, 56, 57` >> 8) & 0xff
   \   00001B   7582..       MOV     DPL,#`?<Constant {48, 49, 51, 52, 53, 54, 55, 56, 57` & 0xff
   \   00001E   7410         MOV     A,#0x10
   \   000020   12....       LCALL   ?MOVE_LONG8_XDATA_XDATA
    427            uint16 value;
    428            switch ( pkt->clusterId )
   \   000023   8A82         MOV     DPL,R2
   \   000025   8B83         MOV     DPH,R3
   \   000027   A3           INC     DPTR
   \   000028   A3           INC     DPTR
   \   000029   A3           INC     DPTR
   \   00002A   A3           INC     DPTR
   \   00002B   E0           MOVX    A,@DPTR
   \   00002C   6404         XRL     A,#0x4
   \   00002E   7002         JNZ     ??SampleApp_MessageMSGCB_0
   \   000030   A3           INC     DPTR
   \   000031   E0           MOVX    A,@DPTR
   \                     ??SampleApp_MessageMSGCB_0:
   \   000032   6003         JZ      $+5
   \   000034   02....       LJMP    ??SampleApp_MessageMSGCB_1 & 0xFFFF
    429            {
    430              uint8 i,len;
                           ^
Warning[Pe177]: variable "i" was declared but never referenced

      uint8 i,len;
              ^
"E:\毕业设计\code\节点\Projects\zstack\Samples\SampleApp\Source\SampleApp.c",430  Warning[Pe550]: 
          variable "len" was set but never used
    431               case SAMPLEAPP_COM_CLUSTERID:     //如果是串口透传的信息
    432                    len=pkt->cmd.Data[0];
    433          //          for(i=0;i<len;i++)
    434          //          HalUARTWrite(0,&pkt->cmd.Data[i+1],1);//发给PC机
    435          //          HalUARTWrite(0,"\n",1);               // 回车换行
    436                    break;
    437           
    438                case SAMPLEAPP_POINT_TO_POINT_CLUSTERID:
    439                {
    440                    value=pkt->srcAddr.addr.shortAddr;
   \   000037   8A82         MOV     DPL,R2
   \   000039   8B83         MOV     DPH,R3
   \   00003B   A3           INC     DPTR
   \   00003C   A3           INC     DPTR
   \   00003D   A3           INC     DPTR
   \   00003E   A3           INC     DPTR
   \   00003F   A3           INC     DPTR
   \   000040   A3           INC     DPTR
   \   000041   E0           MOVX    A,@DPTR
   \   000042   FE           MOV     R6,A
   \   000043   A3           INC     DPTR
   \   000044   E0           MOVX    A,@DPTR
   \   000045   FF           MOV     R7,A
    441                    if(pkt->cmd.Data[5]==1)
   \   000046   EA           MOV     A,R2
   \   000047   2422         ADD     A,#0x22
   \   000049   F582         MOV     DPL,A
   \   00004B   EB           MOV     A,R3
   \   00004C   12....       LCALL   ?Subroutine9 & 0xFFFF
   \                     ??CrossCallReturnLabel_10:
   \   00004F   A3           INC     DPTR
   \   000050   A3           INC     DPTR
   \   000051   A3           INC     DPTR
   \   000052   A3           INC     DPTR
   \   000053   A3           INC     DPTR
   \   000054   E0           MOVX    A,@DPTR
   \   000055   6401         XRL     A,#0x1
   \   000057   700D         JNZ     ??SampleApp_MessageMSGCB_2
    442                       HalUARTWrite(0,"ROUTER ShortAddr:0x",19);
   \   000059                ; Setup parameters for call to function HalUARTWrite
   \   000059   7C13         MOV     R4,#0x13
   \   00005B   7D00         MOV     R5,#0x0
   \   00005D   7A..         MOV     R2,#`?<Constant "ROUTER ShortAddr:0x">` & 0xff
   \   00005F   7B..         MOV     R3,#(`?<Constant "ROUTER ShortAddr:0x">` >> 8) & 0xff
   \   000061   7900         MOV     R1,#0x0
   \   000063   12....       LCALL   ??HalUARTWrite?relay
    443                    if(pkt->cmd.Data[5]==2)
   \                     ??SampleApp_MessageMSGCB_2:
   \   000066   12....       LCALL   ?Subroutine7 & 0xFFFF
   \                     ??CrossCallReturnLabel_6:
   \   000069   A3           INC     DPTR
   \   00006A   E0           MOVX    A,@DPTR
   \   00006B   6402         XRL     A,#0x2
   \   00006D   700D         JNZ     ??SampleApp_MessageMSGCB_3
    444                       HalUARTWrite(0,"ENDDEVICE ShortAddr:0x",22);    
   \   00006F                ; Setup parameters for call to function HalUARTWrite
   \   00006F   7C16         MOV     R4,#0x16
   \   000071   7D00         MOV     R5,#0x0
   \   000073   7A..         MOV     R2,#`?<Constant "ENDDEVICE ShortAddr:0x">` & 0xff
   \   000075   7B..         MOV     R3,#(`?<Constant "ENDDEVICE ShortAddr:0x">` >> 8) & 0xff
   \   000077   7900         MOV     R1,#0x0
   \   000079   12....       LCALL   ??HalUARTWrite?relay
    445                    HalUARTWrite(0,&asc_16[value/4096],1);
   \                     ??SampleApp_MessageMSGCB_3:
   \   00007C                ; Setup parameters for call to function HalUARTWrite
   \   00007C   7C01         MOV     R4,#0x1
   \   00007E   7D00         MOV     R5,#0x0
   \   000080   8E..         MOV     ?V0 + 2,R6
   \   000082   8F..         MOV     ?V0 + 3,R7
   \   000084   740C         MOV     A,#0xc
   \   000086   78..         MOV     R0,#?V0 + 2
   \   000088   12....       LCALL   ?US_SHR
   \   00008B   85..82       MOV     DPL,?XSP + 0
   \   00008E   85..83       MOV     DPH,?XSP + 1
   \   000091   E582         MOV     A,DPL
   \   000093   25..         ADD     A,?V0 + 2
   \   000095   FA           MOV     R2,A
   \   000096   E583         MOV     A,DPH
   \   000098   3400         ADDC    A,#0x0
   \   00009A   FB           MOV     R3,A
   \   00009B   7900         MOV     R1,#0x0
   \   00009D   12....       LCALL   ?Subroutine12 & 0xFFFF
    446                    HalUARTWrite(0,&asc_16[value%4096/256],1);
    447                    HalUARTWrite(0,&asc_16[value%256/16],1);
    448                    HalUARTWrite(0,&asc_16[value%16],1);
    449                    HalUARTWrite(0,"\n",1);   
    450                }
   \                     ??CrossCallReturnLabel_34:
   \   0000A0   EF           MOV     A,R7
   \   0000A1   F9           MOV     R1,A
   \   0000A2   E4           CLR     A
   \   0000A3   C9           XCH     A,R1
   \   0000A4   12....       LCALL   ?Subroutine8 & 0xFFFF
   \                     ??CrossCallReturnLabel_8:
   \   0000A7   12....       LCALL   ?Subroutine6 & 0xFFFF
   \                     ??CrossCallReturnLabel_4:
   \   0000AA   C4           SWAP    A
   \   0000AB   12....       LCALL   ?Subroutine8 & 0xFFFF
   \                     ??CrossCallReturnLabel_9:
   \   0000AE   7900         MOV     R1,#0x0
   \   0000B0   12....       LCALL   ?Subroutine6 & 0xFFFF
   \                     ??CrossCallReturnLabel_5:
   \   0000B3   540F         ANL     A,#0xf
   \   0000B5   F8           MOV     R0,A
   \   0000B6   7900         MOV     R1,#0x0
   \   0000B8   85..82       MOV     DPL,?XSP + 0
   \   0000BB   85..83       MOV     DPH,?XSP + 1
   \   0000BE   E582         MOV     A,DPL
   \   0000C0   28           ADD     A,R0
   \   0000C1   FA           MOV     R2,A
   \   0000C2   E583         MOV     A,DPH
   \   0000C4   3400         ADDC    A,#0x0
   \   0000C6   FB           MOV     R3,A
   \   0000C7   12....       LCALL   ??Subroutine20_0 & 0xFFFF
    451               {
    452                    switch(pkt->cmd.Data[4])
   \                     ??CrossCallReturnLabel_33:
   \   0000CA   12....       LCALL   ?Subroutine7 & 0xFFFF
   \                     ??CrossCallReturnLabel_7:
   \   0000CD   E0           MOVX    A,@DPTR
   \   0000CE   14           DEC     A
   \   0000CF   6009         JZ      ??SampleApp_MessageMSGCB_4
   \   0000D1   14           DEC     A
   \   0000D2   6044         JZ      ??SampleApp_MessageMSGCB_5
   \   0000D4   14           DEC     A
   \   0000D5   606B         JZ      ??SampleApp_MessageMSGCB_6
   \   0000D7   02....       LJMP    ??SampleApp_MessageMSGCB_1 & 0xFFFF
    453                    {
    454                      case DHT11:
    455                         /***********温度打印***************/
    456                      HalUARTWrite(0,"Temp is:",8);        //提示接收到数据
   \                     ??SampleApp_MessageMSGCB_4:
   \   0000DA                ; Setup parameters for call to function HalUARTWrite
   \   0000DA   7C08         MOV     R4,#0x8
   \   0000DC   7D00         MOV     R5,#0x0
   \   0000DE   7A..         MOV     R2,#`?<Constant "Temp is:">` & 0xff
   \   0000E0   7B..         MOV     R3,#(`?<Constant "Temp is:">` >> 8) & 0xff
   \   0000E2   7900         MOV     R1,#0x0
   \   0000E4   12....       LCALL   ??HalUARTWrite?relay
    457                      HalUARTWrite(0,&pkt->cmd.Data[0],2); //温度
   \   0000E7   E5..         MOV     A,?V0 + 0
   \   0000E9   2422         ADD     A,#0x22
   \   0000EB   F8           MOV     R0,A
   \   0000EC   E5..         MOV     A,?V0 + 1
   \   0000EE   3400         ADDC    A,#0x0
   \   0000F0   F9           MOV     R1,A
   \   0000F1   E8           MOV     A,R0
   \   0000F2   FE           MOV     R6,A
   \   0000F3   E9           MOV     A,R1
   \   0000F4   FF           MOV     R7,A
   \   0000F5                ; Setup parameters for call to function HalUARTWrite
   \   0000F5   7C02         MOV     R4,#0x2
   \   0000F7   7D00         MOV     R5,#0x0
   \   0000F9   8E82         MOV     DPL,R6
   \   0000FB   8F83         MOV     DPH,R7
   \   0000FD   E0           MOVX    A,@DPTR
   \   0000FE   FA           MOV     R2,A
   \   0000FF   A3           INC     DPTR
   \   000100   E0           MOVX    A,@DPTR
   \   000101   FB           MOV     R3,A
   \   000102   7900         MOV     R1,#0x0
   \   000104   12....       LCALL   ??HalUARTWrite?relay
    458                     // HalUARTWrite(0,"\r\n",2);             // 回车换行
    459                       /***************湿度打印****************/
    460                      HalUARTWrite(0,"Humidity is:",12);    //提示接收到数据
   \   000107                ; Setup parameters for call to function HalUARTWrite
   \   000107   12....       LCALL   ?Subroutine3 & 0xFFFF
    461                      HalUARTWrite(0,&pkt->cmd.Data[2],2);  //湿度
   \                     ??CrossCallReturnLabel_26:
   \   00010A   8E82         MOV     DPL,R6
   \   00010C   8F83         MOV     DPH,R7
   \   00010E   E0           MOVX    A,@DPTR
   \   00010F   2402         ADD     A,#0x2
   \   000111   FA           MOV     R2,A
   \   000112   A3           INC     DPTR
   \   000113   E0           MOVX    A,@DPTR
   \   000114   3400         ADDC    A,#0x0
   \   000116   8040         SJMP    ??SampleApp_MessageMSGCB_7
    462                     HalUARTWrite(0,"\r\n",2);              // 回车换行
    463                      break;
    464          
    465                      case LIGHTED:
    466                      HalUARTWrite(0,"light state:",12);        //提示接收到数据
   \                     ??SampleApp_MessageMSGCB_5:
   \   000118                ; Setup parameters for call to function HalUARTWrite
   \   000118   7C0C         MOV     R4,#0xc
   \   00011A   7D00         MOV     R5,#0x0
   \   00011C   7A..         MOV     R2,#`?<Constant "light state:">` & 0xff
   \   00011E   7B..         MOV     R3,#(`?<Constant "light state:">` >> 8) & 0xff
   \   000120   7900         MOV     R1,#0x0
   \   000122   12....       LCALL   ??HalUARTWrite?relay
    467                      if(pkt->cmd.Data[0])    
   \   000125   12....       LCALL   ?Subroutine14 & 0xFFFF
   \                     ??CrossCallReturnLabel_17:
   \   000128   12....       LCALL   ?Subroutine9 & 0xFFFF
   \                     ??CrossCallReturnLabel_11:
   \   00012B   E0           MOVX    A,@DPTR
   \   00012C   600A         JZ      ??SampleApp_MessageMSGCB_8
    468                        HalUARTWrite(0,"no light\n",9);
   \   00012E                ; Setup parameters for call to function HalUARTWrite
   \   00012E   7C09         MOV     R4,#0x9
   \   000130   7D00         MOV     R5,#0x0
   \   000132   7A..         MOV     R2,#`?<Constant "no light\\n">` & 0xff
   \   000134   7B..         MOV     R3,#(`?<Constant "no light\\n">` >> 8) & 0xff
   \   000136   8021         SJMP    ??SampleApp_MessageMSGCB_9
    469                      else
    470                        HalUARTWrite(0,"got light\n",10);
   \                     ??SampleApp_MessageMSGCB_8:
   \   000138                ; Setup parameters for call to function HalUARTWrite
   \   000138   7C0A         MOV     R4,#0xa
   \   00013A   7D00         MOV     R5,#0x0
   \   00013C   7A..         MOV     R2,#`?<Constant "got light\\n">` & 0xff
   \   00013E   7B..         MOV     R3,#(`?<Constant "got light\\n">` >> 8) & 0xff
   \   000140   8017         SJMP    ??SampleApp_MessageMSGCB_9
   \   000142                ; Setup parameters for call to function HalUARTWrite
    471                      HalUARTWrite(0,"\r\n",2);              // 回车换行
    472                      break;
    473          
    474                      case DS18B20:
    475                      HalUARTWrite(0,"Temp is:",8);        //提示接收到数据
   \                     ??SampleApp_MessageMSGCB_6:
   \   000142                ; Setup parameters for call to function HalUARTWrite
   \   000142   7C08         MOV     R4,#0x8
   \   000144   7D00         MOV     R5,#0x0
   \   000146   7A..         MOV     R2,#`?<Constant "Temp is:">` & 0xff
   \   000148   7B..         MOV     R3,#(`?<Constant "Temp is:">` >> 8) & 0xff
   \   00014A   12....       LCALL   ??Subroutine19_0 & 0xFFFF
    476                      HalUARTWrite(0,&pkt->cmd.Data[0],2); //温度
   \                     ??CrossCallReturnLabel_28:
   \   00014D   12....       LCALL   ?Subroutine14 & 0xFFFF
   \                     ??CrossCallReturnLabel_18:
   \   000150   3400         ADDC    A,#0x0
   \   000152   F583         MOV     DPH,A
   \   000154   E0           MOVX    A,@DPTR
   \   000155   FA           MOV     R2,A
   \   000156   A3           INC     DPTR
   \   000157   E0           MOVX    A,@DPTR
   \                     ??SampleApp_MessageMSGCB_7:
   \   000158   FB           MOV     R3,A
   \                     ??SampleApp_MessageMSGCB_9:
   \   000159   12....       LCALL   ??Subroutine19_0 & 0xFFFF
    477                     HalUARTWrite(0,"\r\n",2);              // 回车换行
   \                     ??CrossCallReturnLabel_29:
   \   00015C   7A..         MOV     R2,#`?<Constant "\\r\\n">` & 0xff
   \   00015E   7B..         MOV     R3,#(`?<Constant "\\r\\n">` >> 8) & 0xff
   \   000160   7900         MOV     R1,#0x0
   \   000162   12....       LCALL   ??HalUARTWrite?relay
    478                      break;
    479                    }
    480                  }
    481                break;
    482                
    483              /*case SAMPLEAPP_PERIODIC_CLUSTERID:
    484                
    485                break;
    486          
    487              case SAMPLEAPP_FLASH_CLUSTERID:
    488                flashTime = BUILD_UINT16(pkt->cmd.Data[1], pkt->cmd.Data[2] );
    489                HalLedBlink( HAL_LED_4, 4, 50, (flashTime / 4) );
    490                break;*/
    491            }
    492          }
   \                     ??SampleApp_MessageMSGCB_1:
   \   000165   7410         MOV     A,#0x10
   \   000167                REQUIRE ?Subroutine0
   \   000167                ; // Fall through to label ?Subroutine0

   \                                 In  segment BANKED_CODE, align 1, keep-with-next
   \                     ?Subroutine0:
   \   000000   12....       LCALL   ?DEALLOC_XSTACK8
   \   000003                REQUIRE ??Subroutine16_0
   \   000003                ; // Fall through to label ??Subroutine16_0

   \                                 In  segment BANKED_CODE, align 1, keep-with-next
   \                     ?Subroutine9:
   \   000000   12....       LCALL   ?Subroutine13 & 0xFFFF
   \                     ??CrossCallReturnLabel_16:
   \   000003   22           RET

   \                                 In  segment BANKED_CODE, align 1, keep-with-next
   \                     ?Subroutine13:
   \   000000   3400         ADDC    A,#0x0
   \   000002   F583         MOV     DPH,A
   \   000004   E0           MOVX    A,@DPTR
   \   000005   F8           MOV     R0,A
   \   000006   A3           INC     DPTR
   \   000007   E0           MOVX    A,@DPTR
   \   000008   F583         MOV     DPH,A
   \   00000A   8882         MOV     DPL,R0
   \   00000C   22           RET

   \                                 In  segment BANKED_CODE, align 1, keep-with-next
   \                     ?Subroutine8:
   \   000000   540F         ANL     A,#0xf
   \   000002   F8           MOV     R0,A
   \   000003   85..82       MOV     DPL,?XSP + 0
   \   000006   85..83       MOV     DPH,?XSP + 1
   \   000009   E582         MOV     A,DPL
   \   00000B   28           ADD     A,R0
   \   00000C   FA           MOV     R2,A
   \   00000D   E583         MOV     A,DPH
   \   00000F   3400         ADDC    A,#0x0
   \   000011   FB           MOV     R3,A
   \   000012   22           RET

   \                                 In  segment BANKED_CODE, align 1, keep-with-next
   \                     ?Subroutine7:
   \   000000   12....       LCALL   ?Subroutine14 & 0xFFFF
   \                     ??CrossCallReturnLabel_19:
   \   000003   12....       LCALL   ?Subroutine13 & 0xFFFF
   \                     ??CrossCallReturnLabel_15:
   \   000006   A3           INC     DPTR
   \   000007   A3           INC     DPTR
   \   000008   A3           INC     DPTR
   \   000009   A3           INC     DPTR
   \   00000A   22           RET

   \                                 In  segment BANKED_CODE, align 1, keep-with-next
   \                     ?Subroutine14:
   \   000000   E5..         MOV     A,?V0 + 0
   \   000002   2422         ADD     A,#0x22
   \   000004   F582         MOV     DPL,A
   \   000006   E5..         MOV     A,?V0 + 1
   \   000008   22           RET

   \                                 In  segment BANKED_CODE, align 1, keep-with-next
   \                     ?Subroutine6:
   \   000000   12....       LCALL   ?Subroutine12 & 0xFFFF
   \                     ??CrossCallReturnLabel_35:
   \   000003   EE           MOV     A,R6
   \   000004   22           RET

   \                                 In  segment BANKED_CODE, align 1, keep-with-next
   \                     ?Subroutine12:
   \   000000   12....       LCALL   ??HalUARTWrite?relay
   \   000003                ; Setup parameters for call to function HalUARTWrite
   \   000003                ; Setup parameters for call to function HalUARTWrite
   \   000003                ; Setup parameters for call to function HalUARTWrite
   \   000003                ; Setup parameters for call to function HalUARTWrite
   \   000003                ; Setup parameters for call to function HalUARTWrite
   \   000003                ; Setup parameters for call to function HalUARTWrite
   \   000003   7C01         MOV     R4,#0x1
   \   000005   7D00         MOV     R5,#0x0
   \   000007   22           RET

   \                                 In  segment BANKED_CODE, align 1, keep-with-next
   \                     ?Subroutine3:
   \   000000   7C0C         MOV     R4,#0xc
   \   000002   7D00         MOV     R5,#0x0
   \   000004   7A..         MOV     R2,#`?<Constant "Humidity is:">` & 0xff
   \   000006   7B..         MOV     R3,#(`?<Constant "Humidity is:">` >> 8) & 0xff
   \   000008                REQUIRE ??Subroutine19_0
   \   000008                ; // Fall through to label ??Subroutine19_0

   \                                 In  segment BANKED_CODE, align 1, keep-with-next
   \                     ??Subroutine19_0:
   \   000000   7900         MOV     R1,#0x0
   \   000002   12....       LCALL   ??HalUARTWrite?relay
   \   000005                ; Setup parameters for call to function HalUARTWrite
   \   000005                ; Setup parameters for call to function HalUARTWrite
   \   000005                ; Setup parameters for call to function HalUARTWrite
   \   000005                ; Setup parameters for call to function HalUARTWrite
   \   000005                ; Setup parameters for call to function HalUARTWrite
   \   000005   7C02         MOV     R4,#0x2
   \   000007   7D00         MOV     R5,#0x0
   \   000009   22           RET

   \                                 In  segment BANKED_CODE, align 1, keep-with-next
   \                     ??Subroutine20_0:
   \   000000   12....       LCALL   ?Subroutine12 & 0xFFFF
   \                     ??CrossCallReturnLabel_36:
   \   000003   7A..         MOV     R2,#`?<Constant "\\n">` & 0xff
   \   000005   7B..         MOV     R3,#(`?<Constant "\\n">` >> 8) & 0xff
   \   000007   7900         MOV     R1,#0x0
   \   000009   12....       LCALL   ??HalUARTWrite?relay
   \   00000C   22           RET
    493          
    494          /*********************************************************************
    495           * @fn      SampleApp_SendPeriodicMessage
    496           *
    497           * @brief   Send the periodic message.
    498           *
    499           * @param   none
    500           *
    501           * @return  none
    502           */

   \                                 In  segment BANKED_CODE, align 1, keep-with-next
    503          void SampleApp_SendPeriodicMessage( void )
   \                     SampleApp_SendPeriodicMessage:
    504          {
   \   000000   74F6         MOV     A,#-0xa
   \   000002   12....       LCALL   ?BANKED_ENTER_XDATA
   \   000005                ; Saved register size: 10
   \   000005                ; Auto size: 0
    505            if ( AF_DataRequest( &SampleApp_Periodic_DstAddr, &SampleApp_epDesc,
    506                                 SAMPLEAPP_PERIODIC_CLUSTERID,
    507                                 1,
    508                                 (uint8*)&SampleAppPeriodicCounter,
    509                                 &SampleApp_TransID,
    510                                 AF_DISCV_ROUTE,
    511                                 AF_DEFAULT_RADIUS ) == afStatus_SUCCESS )
   \   000005                ; Setup parameters for call to function AF_DataRequest
   \   000005   75..1E       MOV     ?V0 + 0,#0x1e
   \   000008   78..         MOV     R0,#?V0 + 0
   \   00000A   12....       LCALL   ?PUSH_XSTACK_I_ONE
   \   00000D   75....       MOV     ?V0 + 0,#SampleApp_TransID & 0xff
   \   000010   75....       MOV     ?V0 + 1,#(SampleApp_TransID >> 8) & 0xff
   \   000013   78..         MOV     R0,#?V0 + 0
   \   000015   12....       LCALL   ?PUSH_XSTACK_I_TWO
   \   000018   75....       MOV     ?V0 + 0,#SampleAppPeriodicCounter & 0xff
   \   00001B   75....       MOV     ?V0 + 1,#(SampleAppPeriodicCounter >> 8) & 0xff
   \   00001E   78..         MOV     R0,#?V0 + 0
   \   000020   12....       LCALL   ?PUSH_XSTACK_I_TWO
   \   000023   75..01       MOV     ?V0 + 0,#0x1
   \   000026   75..00       MOV     ?V0 + 1,#0x0
   \   000029   78..         MOV     R0,#?V0 + 0
   \   00002B   12....       LCALL   ?PUSH_XSTACK_I_TWO
   \   00002E   78..         MOV     R0,#?V0 + 0
   \   000030   12....       LCALL   ?PUSH_XSTACK_I_TWO
   \   000033   12....       LCALL   ?Subroutine10 & 0xFFFF
   \                     ??CrossCallReturnLabel_22:
   \   000036   02....       LJMP    ?Subroutine1 & 0xFFFF
    512            {
    513            }
    514            else
    515            {
    516              // Error occurred in request to send.
    517            }
    518          }

   \                                 In  segment BANKED_CODE, align 1, keep-with-next
   \                     ?Subroutine10:
   \   000000   7920         MOV     R1,#0x20
   \   000002   7C..         MOV     R4,#SampleApp_epDesc & 0xff
   \   000004   7D..         MOV     R5,#(SampleApp_epDesc >> 8) & 0xff
   \   000006   7A..         MOV     R2,#SampleApp_Periodic_DstAddr & 0xff
   \   000008   7B..         MOV     R3,#(SampleApp_Periodic_DstAddr >> 8) & 0xff
   \   00000A                REQUIRE ??Subroutine17_0
   \   00000A                ; // Fall through to label ??Subroutine17_0

   \                                 In  segment BANKED_CODE, align 1, keep-with-next
   \                     ??Subroutine17_0:
   \   000000   12....       LCALL   ??AF_DataRequest?relay
   \   000003   7409         MOV     A,#0x9
   \   000005   22           RET

   \                                 In  segment BANKED_CODE, align 1, keep-with-next
   \                     ?Subroutine1:
   \   000000   12....       LCALL   ?DEALLOC_XSTACK8
   \   000003                REQUIRE ??Subroutine18_0
   \   000003                ; // Fall through to label ??Subroutine18_0
    519          
    520          /*********************************************************************
    521           * @fn      SampleApp_SendFlashMessage
    522           *
    523           * @brief   Send the flash message to group 1.
    524           *
    525           * @param   flashTime - in milliseconds
    526           *
    527           * @return  none
    528           */

   \                                 In  segment BANKED_CODE, align 1, keep-with-next
    529          void SampleApp_SendFlashMessage( uint16 flashTime )
   \                     SampleApp_SendFlashMessage:
    530          {
   \   000000   74F6         MOV     A,#-0xa
   \   000002   12....       LCALL   ?BANKED_ENTER_XDATA
   \   000005                ; Saved register size: 10
   \   000005                ; Auto size: 3
   \   000005   74FD         MOV     A,#-0x3
   \   000007   12....       LCALL   ?ALLOC_XSTACK8
    531            uint8 buffer[3];
    532            buffer[0] = (uint8)(SampleAppFlashCounter++);
   \   00000A   90....       MOV     DPTR,#SampleAppFlashCounter
   \   00000D   E0           MOVX    A,@DPTR
   \   00000E   85..82       MOV     DPL,?XSP + 0
   \   000011   85..83       MOV     DPH,?XSP + 1
   \   000014   F0           MOVX    @DPTR,A
   \   000015   90....       MOV     DPTR,#SampleAppFlashCounter
   \   000018   E0           MOVX    A,@DPTR
   \   000019   04           INC     A
   \   00001A   F0           MOVX    @DPTR,A
    533            buffer[1] = LO_UINT16( flashTime );
   \   00001B   7401         MOV     A,#0x1
   \   00001D   12....       LCALL   ?XSTACK_DISP0_8
   \   000020   EA           MOV     A,R2
   \   000021   F0           MOVX    @DPTR,A
    534            buffer[2] = HI_UINT16( flashTime );
   \   000022   7402         MOV     A,#0x2
   \   000024   12....       LCALL   ?XSTACK_DISP0_8
   \   000027   EB           MOV     A,R3
   \   000028   F0           MOVX    @DPTR,A
    535          
    536            if ( AF_DataRequest( &SampleApp_Flash_DstAddr, &SampleApp_epDesc,
    537                                 SAMPLEAPP_FLASH_CLUSTERID,
    538                                 3,
    539                                 buffer,
    540                                 &SampleApp_TransID,
    541                                 AF_DISCV_ROUTE,
    542                                 AF_DEFAULT_RADIUS ) == afStatus_SUCCESS )
   \   000029                ; Setup parameters for call to function AF_DataRequest
   \   000029   75..1E       MOV     ?V0 + 0,#0x1e
   \   00002C   78..         MOV     R0,#?V0 + 0
   \   00002E   12....       LCALL   ?PUSH_XSTACK_I_ONE
   \   000031   75....       MOV     ?V0 + 0,#SampleApp_TransID & 0xff
   \   000034   75....       MOV     ?V0 + 1,#(SampleApp_TransID >> 8) & 0xff
   \   000037   78..         MOV     R0,#?V0 + 0
   \   000039   12....       LCALL   ?PUSH_XSTACK_I_TWO
   \   00003C   7403         MOV     A,#0x3
   \   00003E   12....       LCALL   ?XSTACK_DISP0_8
   \   000041   8582..       MOV     ?V0 + 0,DPL
   \   000044   8583..       MOV     ?V0 + 1,DPH
   \   000047   78..         MOV     R0,#?V0 + 0
   \   000049   12....       LCALL   ?PUSH_XSTACK_I_TWO
   \   00004C   75..03       MOV     ?V0 + 0,#0x3
   \   00004F   75..00       MOV     ?V0 + 1,#0x0
   \   000052   78..         MOV     R0,#?V0 + 0
   \   000054   12....       LCALL   ?PUSH_XSTACK_I_TWO
   \   000057   75..02       MOV     ?V0 + 0,#0x2
   \   00005A   78..         MOV     R0,#?V0 + 0
   \   00005C   12....       LCALL   ?PUSH_XSTACK_I_TWO
   \   00005F   7920         MOV     R1,#0x20
   \   000061   7C..         MOV     R4,#SampleApp_epDesc & 0xff
   \   000063   7D..         MOV     R5,#(SampleApp_epDesc >> 8) & 0xff
   \   000065   7A..         MOV     R2,#SampleApp_Flash_DstAddr & 0xff
   \   000067   7B..         MOV     R3,#(SampleApp_Flash_DstAddr >> 8) & 0xff
   \   000069   12....       LCALL   ??Subroutine17_0 & 0xFFFF
   \                     ??CrossCallReturnLabel_24:
   \   00006C   12....       LCALL   ?DEALLOC_XSTACK8
    543            {
    544            }
    545            else
    546            {
    547              // Error occurred in request to send.
    548            }
    549          }
   \   00006F   7403         MOV     A,#0x3
   \   000071   02....       LJMP    ?Subroutine1 & 0xFFFF
    550          
    551          /*********************************************************************
    552          *********************************************************************/

   \                                 In  segment BANKED_CODE, align 1, keep-with-next
    553          void SampleApp_SerialCMD(mtOSALSerialData_t *cmdMsg)
   \                     SampleApp_SerialCMD:
    554          {
   \   000000   74F4         MOV     A,#-0xc
   \   000002   12....       LCALL   ?BANKED_ENTER_XDATA
   \   000005                ; Saved register size: 12
   \   000005                ; Auto size: 0
    555            uint8 i,len,*str=NULL;     //len有用数据长度
                         ^
Warning[Pe177]: variable "i" was declared but never referenced
    556            str=cmdMsg->msg;          //指向数据开头
   \   000005   8A82         MOV     DPL,R2
   \   000007   8B83         MOV     DPH,R3
   \   000009   A3           INC     DPTR
   \   00000A   A3           INC     DPTR
   \   00000B   E0           MOVX    A,@DPTR
   \   00000C   F5..         MOV     ?V0 + 0,A
   \   00000E   A3           INC     DPTR
   \   00000F   E0           MOVX    A,@DPTR
   \   000010   F5..         MOV     ?V0 + 1,A
    557            len=*str;                 //msg里的第1个字节代表后面的数据长度
    558          
    559            /********打印出串口接收到的数据，用于提示*********/
    560          
    561          //  for(i=1;i<=len;i++)
    562          //  HalUARTWrite(0,str+i,1 ); 
    563          //  HalUARTWrite(0,"\n",1 );//换行  
    564          
    565            /*******发送出去***参考网蜂 1小时无线数据传输教程*********/
    566          
    567            if ( AF_DataRequest( &SampleApp_Periodic_DstAddr, &SampleApp_epDesc,
    568          	                    SAMPLEAPP_COM_CLUSTERID,//自己定义一个
    569          	                    len+1,                  // 数据长度         
    570                                      str,                     //数据内容
    571          	                    &SampleApp_TransID, 
    572          	                    AF_DISCV_ROUTE,
    573          	                    AF_DEFAULT_RADIUS ) == afStatus_SUCCESS )
   \   000012                ; Setup parameters for call to function AF_DataRequest
   \   000012   75..1E       MOV     ?V0 + 2,#0x1e
   \   000015   78..         MOV     R0,#?V0 + 2
   \   000017   12....       LCALL   ?PUSH_XSTACK_I_ONE
   \   00001A   75....       MOV     ?V0 + 2,#SampleApp_TransID & 0xff
   \   00001D   75....       MOV     ?V0 + 3,#(SampleApp_TransID >> 8) & 0xff
   \   000020   78..         MOV     R0,#?V0 + 2
   \   000022   12....       LCALL   ?PUSH_XSTACK_I_TWO
   \   000025   78..         MOV     R0,#?V0 + 0
   \   000027   12....       LCALL   ?PUSH_XSTACK_I_TWO
   \   00002A   85..82       MOV     DPL,?V0 + 0
   \   00002D   85..83       MOV     DPH,?V0 + 1
   \   000030   E0           MOVX    A,@DPTR
   \   000031   2401         ADD     A,#0x1
   \   000033   F5..         MOV     ?V0 + 0,A
   \   000035   E4           CLR     A
   \   000036   3400         ADDC    A,#0x0
   \   000038   F5..         MOV     ?V0 + 1,A
   \   00003A   78..         MOV     R0,#?V0 + 0
   \   00003C   12....       LCALL   ?PUSH_XSTACK_I_TWO
   \   00003F   75..03       MOV     ?V0 + 0,#0x3
   \   000042   75..00       MOV     ?V0 + 1,#0x0
   \   000045   78..         MOV     R0,#?V0 + 0
   \   000047   12....       LCALL   ?PUSH_XSTACK_I_TWO
   \   00004A   12....       LCALL   ?Subroutine10 & 0xFFFF
   \                     ??CrossCallReturnLabel_23:
   \   00004D   02....       LJMP    ?Subroutine0 & 0xFFFF
    574          	                     {
    575          	                     }
    576            else
    577            {
    578            // Error occurred in request to send.
    579            } 
    580          }
    581          

   \                                 In  segment BANKED_CODE, align 1, keep-with-next
    582          void Sample_SendPointToPointMessage(void)
   \                     Sample_SendPointToPointMessage:
    583          {
   \   000000   74F6         MOV     A,#-0xa
   \   000002   12....       LCALL   ?BANKED_ENTER_XDATA
   \   000005                ; Saved register size: 10
   \   000005                ; Auto size: 6
   \   000005   74FA         MOV     A,#-0x6
   \   000007   12....       LCALL   ?ALLOC_XSTACK8
    584            uint8 SendData[6],device;
    585            switch(SENSORTYPE)
    586            {
    587              case DHT11:
    588                SendData[0]=wendu_shi+48;
   \   00000A   12....       LCALL   ?Subroutine4 & 0xFFFF
    589                SendData[1]=wendu_ge%10+48;    
   \                     ??CrossCallReturnLabel_0:
   \   00000D   C0E0         PUSH    A
   \   00000F   7401         MOV     A,#0x1
   \   000011   12....       LCALL   ?XSTACK_DISP0_8
   \   000014   D0E0         POP     A
   \   000016   F0           MOVX    @DPTR,A
    590                SendData[2]=shidu_shi+48;
   \   000017   90....       MOV     DPTR,#shidu_shi
   \   00001A   E0           MOVX    A,@DPTR
   \   00001B   2430         ADD     A,#0x30
   \   00001D   C0E0         PUSH    A
   \   00001F   7402         MOV     A,#0x2
   \   000021   12....       LCALL   ?XSTACK_DISP0_8
   \   000024   D0E0         POP     A
   \   000026   12....       LCALL   ?Subroutine5 & 0xFFFF
    591                SendData[3]=shidu_ge%10+48;
   \                     ??CrossCallReturnLabel_2:
   \   000029   C0E0         PUSH    A
   \   00002B   7403         MOV     A,#0x3
   \   00002D   12....       LCALL   ?XSTACK_DISP0_8
   \   000030   D0E0         POP     A
   \   000032   F0           MOVX    @DPTR,A
    592                SendData[4]=SENSORTYPE;
   \   000033   7404         MOV     A,#0x4
   \   000035   12....       LCALL   ?XSTACK_DISP0_8
   \   000038   7401         MOV     A,#0x1
   \   00003A   F0           MOVX    @DPTR,A
    593              break;
    594          
    595              case LIGHTED:
    596                if(LIGHT==0)
    597                  SendData[0]=0;
    598                else
    599                  SendData[0]=1;
    600              SendData[4]=SENSORTYPE;
    601              break;
    602          
    603              case DS18B20:
    604                SendData[0]=temp2/10+48;
    605                SendData[1]=temp2%10+48;    
    606                SendData[4]=SENSORTYPE;
    607              break;
    608            }
    609          
    610            if(SampleApp_NwkState==DEV_ROUTER)
   \   00003B   90....       MOV     DPTR,#SampleApp_NwkState
   \   00003E   E0           MOVX    A,@DPTR
   \   00003F   6407         XRL     A,#0x7
   \   000041   7009         JNZ     ??Sample_SendPointToPointMessage_0
    611              device=0x01;
   \   000043   7405         MOV     A,#0x5
   \   000045   12....       LCALL   ?XSTACK_DISP0_8
   \   000048   7401         MOV     A,#0x1
   \   00004A   8015         SJMP    ??Sample_SendPointToPointMessage_1
    612            else if(SampleApp_NwkState==DEV_END_DEVICE)
   \                     ??Sample_SendPointToPointMessage_0:
   \   00004C   E0           MOVX    A,@DPTR
   \   00004D   6406         XRL     A,#0x6
   \   00004F   7009         JNZ     ??Sample_SendPointToPointMessage_2
    613              device=0x02;
   \   000051   7405         MOV     A,#0x5
   \   000053   12....       LCALL   ?XSTACK_DISP0_8
   \   000056   7402         MOV     A,#0x2
   \   000058   8007         SJMP    ??Sample_SendPointToPointMessage_1
    614            else 
    615              device=0x03;
   \                     ??Sample_SendPointToPointMessage_2:
   \   00005A   7405         MOV     A,#0x5
   \   00005C   12....       LCALL   ?XSTACK_DISP0_8
   \   00005F   7403         MOV     A,#0x3
   \                     ??Sample_SendPointToPointMessage_1:
   \   000061   F0           MOVX    @DPTR,A
    616            SendData[5]=device;
    617          
    618            if ( AF_DataRequest( &Point_To_Point_DstAddr,
    619                                 &SampleApp_epDesc,
    620                                 SAMPLEAPP_POINT_TO_POINT_CLUSTERID,
    621                                 6,
    622                                 SendData,
    623                                 &SampleApp_TransID,
    624                                 AF_DISCV_ROUTE,
    625                                 AF_DEFAULT_RADIUS ) == afStatus_SUCCESS )
   \   000062                ; Setup parameters for call to function AF_DataRequest
   \   000062   75..1E       MOV     ?V0 + 0,#0x1e
   \   000065   78..         MOV     R0,#?V0 + 0
   \   000067   12....       LCALL   ?PUSH_XSTACK_I_ONE
   \   00006A   75....       MOV     ?V0 + 0,#SampleApp_TransID & 0xff
   \   00006D   75....       MOV     ?V0 + 1,#(SampleApp_TransID >> 8) & 0xff
   \   000070   78..         MOV     R0,#?V0 + 0
   \   000072   12....       LCALL   ?PUSH_XSTACK_I_TWO
   \   000075   7403         MOV     A,#0x3
   \   000077   12....       LCALL   ?XSTACK_DISP0_8
   \   00007A   8582..       MOV     ?V0 + 0,DPL
   \   00007D   8583..       MOV     ?V0 + 1,DPH
   \   000080   78..         MOV     R0,#?V0 + 0
   \   000082   12....       LCALL   ?PUSH_XSTACK_I_TWO
   \   000085   75..06       MOV     ?V0 + 0,#0x6
   \   000088   75..00       MOV     ?V0 + 1,#0x0
   \   00008B   78..         MOV     R0,#?V0 + 0
   \   00008D   12....       LCALL   ?PUSH_XSTACK_I_TWO
   \   000090   75..04       MOV     ?V0 + 0,#0x4
   \   000093   78..         MOV     R0,#?V0 + 0
   \   000095   12....       LCALL   ?PUSH_XSTACK_I_TWO
   \   000098   7920         MOV     R1,#0x20
   \   00009A   7C..         MOV     R4,#SampleApp_epDesc & 0xff
   \   00009C   7D..         MOV     R5,#(SampleApp_epDesc >> 8) & 0xff
   \   00009E   7A..         MOV     R2,#Point_To_Point_DstAddr & 0xff
   \   0000A0   7B..         MOV     R3,#(Point_To_Point_DstAddr >> 8) & 0xff
   \   0000A2   12....       LCALL   ??Subroutine17_0 & 0xFFFF
   \                     ??CrossCallReturnLabel_25:
   \   0000A5   12....       LCALL   ?DEALLOC_XSTACK8
    626            {
    627            }
    628            else
    629            {
    630              // Error occurred in request to send.
    631            }
    632          }
   \   0000A8   7406         MOV     A,#0x6
   \   0000AA                REQUIRE ?Subroutine1
   \   0000AA                REQUIRE _A_P2
   \   0000AA                ; // Fall through to label ?Subroutine1

   \                                 In  segment BANKED_CODE, align 1, keep-with-next
   \                     ?Subroutine5:
   \   000000   F0           MOVX    @DPTR,A
   \   000001   90....       MOV     DPTR,#shidu_ge
   \   000004   12....       LCALL   ?Subroutine11 & 0xFFFF
   \                     ??CrossCallReturnLabel_14:
   \   000007   22           RET

   \                                 In  segment BANKED_CODE, align 1, keep-with-next
   \                     ?Subroutine4:
   \   000000   90....       MOV     DPTR,#wendu_shi
   \   000003   E0           MOVX    A,@DPTR
   \   000004   12....       LCALL   ?Subroutine15 & 0xFFFF
   \                     ??CrossCallReturnLabel_21:
   \   000007   90....       MOV     DPTR,#wendu_ge
   \   00000A   12....       LCALL   ?Subroutine11 & 0xFFFF
   \                     ??CrossCallReturnLabel_13:
   \   00000D   22           RET

   \                                 In  segment BANKED_CODE, align 1, keep-with-next
   \                     ?Subroutine15:
   \   000000   2430         ADD     A,#0x30
   \   000002   85..82       MOV     DPL,?XSP + 0
   \   000005   85..83       MOV     DPH,?XSP + 1
   \   000008   F0           MOVX    @DPTR,A
   \   000009   22           RET

   \                                 In  segment BANKED_CODE, align 1, keep-with-next
   \                     ?Subroutine11:
   \   000000   E0           MOVX    A,@DPTR
   \   000001   75F00A       MOV     B,#0xa
   \   000004   84           DIV     AB
   \   000005   E5F0         MOV     A,B
   \   000007   2430         ADD     A,#0x30
   \   000009   22           RET
    633          

   \                                 In  segment BANKED_CODE, align 1, keep-with-next
    634          void PrintSnesorData(uint8 sensortype)
   \                     PrintSnesorData:
    635          {
   \   000000   74F7         MOV     A,#-0x9
   \   000002   12....       LCALL   ?BANKED_ENTER_XDATA
   \   000005                ; Saved register size: 9
   \   000005                ; Auto size: 4
   \   000005   74FC         MOV     A,#-0x4
   \   000007   12....       LCALL   ?ALLOC_XSTACK8
    636            uint8 SendData[4];
    637            switch(sensortype)
   \   00000A   E9           MOV     A,R1
   \   00000B   14           DEC     A
   \   00000C   6009         JZ      ??PrintSnesorData_0
   \   00000E   14           DEC     A
   \   00000F   6053         JZ      ??PrintSnesorData_1
   \   000011   14           DEC     A
   \   000012   6075         JZ      ??PrintSnesorData_2
   \   000014   02....       LJMP    ??CrossCallReturnLabel_32 & 0xFFFF
    638            {
    639              case DHT11:
    640              DHT11Read();//温度检测 
   \                     ??PrintSnesorData_0:
   \   000017                ; Setup parameters for call to function DHT11Read
   \   000017   12....       LCALL   ??DHT11Read?relay
    641              SendData[0]=wendu_shi+48;
   \   00001A   12....       LCALL   ?Subroutine4 & 0xFFFF
    642              SendData[1]=wendu_ge%10+48;    
   \                     ??CrossCallReturnLabel_1:
   \   00001D   C0E0         PUSH    A
   \   00001F   7401         MOV     A,#0x1
   \   000021   12....       LCALL   ?XSTACK_DISP0_8
   \   000024   D0E0         POP     A
   \   000026   F0           MOVX    @DPTR,A
    643              SendData[2]=shidu_shi+48;
   \   000027   90....       MOV     DPTR,#shidu_shi
   \   00002A   E0           MOVX    A,@DPTR
   \   00002B   2430         ADD     A,#0x30
   \   00002D   C0E0         PUSH    A
   \   00002F   7402         MOV     A,#0x2
   \   000031   12....       LCALL   ?XSTACK_DISP0_8
   \   000034   D0E0         POP     A
   \   000036   12....       LCALL   ?Subroutine5 & 0xFFFF
    644              SendData[3]=shidu_ge%10+48;
   \                     ??CrossCallReturnLabel_3:
   \   000039   C0E0         PUSH    A
   \   00003B   7403         MOV     A,#0x3
   \   00003D   12....       LCALL   ?XSTACK_DISP0_8
   \   000040   D0E0         POP     A
   \   000042   F0           MOVX    @DPTR,A
    645                 /***********温度打印***************/
    646              HalUARTWrite(0,"Temp is:",8);        //提示接收到数据
   \   000043                ; Setup parameters for call to function HalUARTWrite
   \   000043   7C08         MOV     R4,#0x8
   \   000045   7D00         MOV     R5,#0x0
   \   000047   7A..         MOV     R2,#`?<Constant "Temp is:">` & 0xff
   \   000049   7B..         MOV     R3,#(`?<Constant "Temp is:">` >> 8) & 0xff
   \   00004B   12....       LCALL   ??Subroutine19_0 & 0xFFFF
    647              HalUARTWrite(0,SendData,2);  
   \                     ??CrossCallReturnLabel_30:
   \   00004E   85..82       MOV     DPL,?XSP + 0
   \   000051   85..83       MOV     DPH,?XSP + 1
   \   000054   AA82         MOV     R2,DPL
   \   000056   AB83         MOV     R3,DPH
   \   000058   12....       LCALL   ?Subroutine2 & 0xFFFF
    648              HalUARTWrite(0,"\n",1);              // 回车换行
    649          
    650               /***************湿度打印****************/
    651              HalUARTWrite(0,"Humidity is:",12);    //提示接收到数据
   \                     ??CrossCallReturnLabel_31:
   \   00005B                ; Setup parameters for call to function HalUARTWrite
   \   00005B   12....       LCALL   ?Subroutine3 & 0xFFFF
    652              HalUARTWrite(0,SendData+2,2);        //湿度
   \                     ??CrossCallReturnLabel_27:
   \   00005E   EC           MOV     A,R4
   \   00005F   12....       LCALL   ?XSTACK_DISP0_8
   \   000062   805D         SJMP    ??PrintSnesorData_3
    653              HalUARTWrite(0,"\n",1);              // 回车换行
    654              break;
    655          
    656              case LIGHTED:
    657              HalUARTWrite(0,"light state:",12);        //提示接收到数据
   \                     ??PrintSnesorData_1:
   \   000064                ; Setup parameters for call to function HalUARTWrite
   \   000064   7C0C         MOV     R4,#0xc
   \   000066   7D00         MOV     R5,#0x0
   \   000068   7A..         MOV     R2,#`?<Constant "light state:">` & 0xff
   \   00006A   7B..         MOV     R3,#(`?<Constant "light state:">` >> 8) & 0xff
   \   00006C   7900         MOV     R1,#0x0
   \   00006E   12....       LCALL   ??HalUARTWrite?relay
    658              if(LIGHT==0)
   \   000071   A2A0         MOV     C,0xa0.0
   \   000073   400A         JC      ??PrintSnesorData_4
    659                HalUARTWrite(0,"no light\n",9);
   \   000075                ; Setup parameters for call to function HalUARTWrite
   \   000075   7C09         MOV     R4,#0x9
   \   000077   7D00         MOV     R5,#0x0
   \   000079   7A..         MOV     R2,#`?<Constant "no light\\n">` & 0xff
   \   00007B   7B..         MOV     R3,#(`?<Constant "no light\\n">` >> 8) & 0xff
   \   00007D   8046         SJMP    ??PrintSnesorData_5
    660              else
    661                HalUARTWrite(0,"got light\n",10);
   \                     ??PrintSnesorData_4:
   \   00007F                ; Setup parameters for call to function HalUARTWrite
   \   00007F   7C0A         MOV     R4,#0xa
   \   000081   7D00         MOV     R5,#0x0
   \   000083   7A..         MOV     R2,#`?<Constant "got light\\n">` & 0xff
   \   000085   7B..         MOV     R3,#(`?<Constant "got light\\n">` >> 8) & 0xff
   \   000087   803C         SJMP    ??PrintSnesorData_5
   \   000089                ; Setup parameters for call to function HalUARTWrite
    662              HalUARTWrite(0,"\n",1);              // 回车换行
    663              break;
    664          
    665              case DS18B20:
    666              Temp_test();
   \                     ??PrintSnesorData_2:
   \   000089                ; Setup parameters for call to function Temp_test
   \   000089   12....       LCALL   ??Temp_test?relay
    667              SendData[0]=temp2/10+48;
   \   00008C   75F00A       MOV     B,#0xa
   \   00008F   90....       MOV     DPTR,#temp2
   \   000092   E0           MOVX    A,@DPTR
   \   000093   84           DIV     AB
   \   000094   12....       LCALL   ?Subroutine15 & 0xFFFF
    668              SendData[1]=temp2%10+48;
   \                     ??CrossCallReturnLabel_20:
   \   000097   90....       MOV     DPTR,#temp2
   \   00009A   12....       LCALL   ?Subroutine11 & 0xFFFF
   \                     ??CrossCallReturnLabel_12:
   \   00009D   C0E0         PUSH    A
   \   00009F   7401         MOV     A,#0x1
   \   0000A1   12....       LCALL   ?XSTACK_DISP0_8
   \   0000A4   D0E0         POP     A
   \   0000A6   F0           MOVX    @DPTR,A
    669              SendData[2]=' ';
   \   0000A7   7402         MOV     A,#0x2
   \   0000A9   12....       LCALL   ?XSTACK_DISP0_8
   \   0000AC   7420         MOV     A,#0x20
   \   0000AE   F0           MOVX    @DPTR,A
    670              SendData[3]='C';
   \   0000AF   7403         MOV     A,#0x3
   \   0000B1   12....       LCALL   ?XSTACK_DISP0_8
   \   0000B4   7443         MOV     A,#0x43
   \   0000B6   F0           MOVX    @DPTR,A
    671              HalUARTWrite(0,SendData,4);  
   \   0000B7                ; Setup parameters for call to function HalUARTWrite
   \   0000B7   7C04         MOV     R4,#0x4
   \   0000B9   7D00         MOV     R5,#0x0
   \   0000BB   85..82       MOV     DPL,?XSP + 0
   \   0000BE   85..83       MOV     DPH,?XSP + 1
   \                     ??PrintSnesorData_3:
   \   0000C1   AA82         MOV     R2,DPL
   \   0000C3   AB83         MOV     R3,DPH
   \                     ??PrintSnesorData_5:
   \   0000C5   12....       LCALL   ?Subroutine2 & 0xFFFF
    672              HalUARTWrite(0,"\n",1);              // 回车换行
    673              break;
    674            }
    675          }
   \                     ??CrossCallReturnLabel_32:
   \   0000C8   7404         MOV     A,#0x4
   \   0000CA   12....       LCALL   ?DEALLOC_XSTACK8
   \   0000CD   7F01         MOV     R7,#0x1
   \   0000CF   02....       LJMP    ?BANKED_LEAVE_XDATA
   \   0000D2                REQUIRE _A_P2

   \                                 In  segment BANKED_CODE, align 1, keep-with-next
   \                     ?Subroutine2:
   \   000000   7900         MOV     R1,#0x0
   \   000002                REQUIRE ??Subroutine20_0
   \   000002                ; // Fall through to label ??Subroutine20_0

   \                                 In  segment BANK_RELAYS, align 1
   \                     ??SampleApp_Init?relay:
   \   000000   12....       LCALL   ?BDISPATCH
   \   000003   ......       DC24    SampleApp_Init

   \                                 In  segment BANK_RELAYS, align 1
   \                     ??SampleApp_ProcessEvent?relay:
   \   000000   12....       LCALL   ?BDISPATCH
   \   000003   ......       DC24    SampleApp_ProcessEvent

   \                                 In  segment BANK_RELAYS, align 1
   \                     ??SampleApp_HandleKeys?relay:
   \   000000   12....       LCALL   ?BDISPATCH
   \   000003   ......       DC24    SampleApp_HandleKeys

   \                                 In  segment BANK_RELAYS, align 1
   \                     ??SampleApp_MessageMSGCB?relay:
   \   000000   12....       LCALL   ?BDISPATCH
   \   000003   ......       DC24    SampleApp_MessageMSGCB

   \                                 In  segment BANK_RELAYS, align 1
   \                     ??SampleApp_SendPeriodicMessage?relay:
   \   000000   12....       LCALL   ?BDISPATCH
   \   000003   ......       DC24    SampleApp_SendPeriodicMessage

   \                                 In  segment BANK_RELAYS, align 1
   \                     ??SampleApp_SendFlashMessage?relay:
   \   000000   12....       LCALL   ?BDISPATCH
   \   000003   ......       DC24    SampleApp_SendFlashMessage

   \                                 In  segment BANK_RELAYS, align 1
   \                     ??SampleApp_SerialCMD?relay:
   \   000000   12....       LCALL   ?BDISPATCH
   \   000003   ......       DC24    SampleApp_SerialCMD

   \                                 In  segment BANK_RELAYS, align 1
   \                     ??Sample_SendPointToPointMessage?relay:
   \   000000   12....       LCALL   ?BDISPATCH
   \   000003   ......       DC24    Sample_SendPointToPointMessage

   \                                 In  segment BANK_RELAYS, align 1
   \                     ??PrintSnesorData?relay:
   \   000000   12....       LCALL   ?BDISPATCH
   \   000003   ......       DC24    PrintSnesorData

   \                                 In  segment XDATA_ROM_C, align 1
   \                     `?<Constant "Hello World\\n">`:
   \   000000   48656C6C     DB "Hello World\012"
   \            6F20576F
   \            726C640A
   \            00      

   \                                 In  segment XDATA_ROM_C, align 1
   \                     `?<Constant "Group 1">`:
   \   000000   47726F75     DB "Group 1"
   \            70203100

   \                                 In  segment XDATA_ROM_C, align 1
   \                     `?<Constant "SampleApp">`:
   \   000000   53616D70     DB "SampleApp"
   \            6C654170
   \            7000    

   \                                 In  segment XDATA_ROM_C, align 1
   \                     `?<Constant {48, 49, 51, 52, 53, 54, 55, 56, 57`:
   \   000000   30           DB 48
   \   000001   31           DB 49
   \   000002   33           DB 51
   \   000003   34           DB 52
   \   000004   35           DB 53
   \   000005   36           DB 54
   \   000006   37           DB 55
   \   000007   38           DB 56
   \   000008   39           DB 57
   \   000009   41           DB 65
   \   00000A   42           DB 66
   \   00000B   43           DB 67
   \   00000C   44           DB 68
   \   00000D   45           DB 69
   \   00000E   46           DB 70
   \   00000F   00           DB 0

   \                                 In  segment XDATA_ROM_C, align 1
   \                     `?<Constant "ROUTER ShortAddr:0x">`:
   \   000000   524F5554     DB "ROUTER ShortAddr:0x"
   \            45522053
   \            686F7274
   \            41646472
   \            3A307800

   \                                 In  segment XDATA_ROM_C, align 1
   \                     `?<Constant "ENDDEVICE ShortAddr:0x">`:
   \   000000   454E4444     DB "ENDDEVICE ShortAddr:0x"
   \            45564943
   \            45205368
   \            6F727441
   \            6464723A
   \            307800  

   \                                 In  segment XDATA_ROM_C, align 1
   \                     `?<Constant "\\n">`:
   \   000000   0A00         DB "\012"

   \                                 In  segment XDATA_ROM_C, align 1
   \                     `?<Constant "Temp is:">`:
   \   000000   54656D70     DB "Temp is:"
   \            2069733A
   \            00      

   \                                 In  segment XDATA_ROM_C, align 1
   \                     `?<Constant "Humidity is:">`:
   \   000000   48756D69     DB "Humidity is:"
   \            64697479
   \            2069733A
   \            00      

   \                                 In  segment XDATA_ROM_C, align 1
   \                     `?<Constant "\\r\\n">`:
   \   000000   0D0A00       DB "\015\012"

   \                                 In  segment XDATA_ROM_C, align 1
   \                     `?<Constant "light state:">`:
   \   000000   6C696768     DB "light state:"
   \            74207374
   \            6174653A
   \            00      

   \                                 In  segment XDATA_ROM_C, align 1
   \                     `?<Constant "no light\\n">`:
   \   000000   6E6F206C     DB "no light\012"
   \            69676874
   \            0A00    

   \                                 In  segment XDATA_ROM_C, align 1
   \                     `?<Constant "got light\\n">`:
   \   000000   676F7420     DB "got light\012"
   \            6C696768
   \            740A00  

   Maximum stack usage in bytes:

     Function                       ISTACK PSTACK XSTACK
     --------                       ------ ------ ------
     PrintSnesorData                    1      0     25
       -> DHT11Read                     0      0     26
       -> HalUARTWrite                  0      0     26
       -> HalUARTWrite                  0      0     26
       -> HalUARTWrite                  0      0     26
       -> HalUARTWrite                  0      0     26
       -> HalUARTWrite                  0      0     26
       -> HalUARTWrite                  0      0     26
       -> HalUARTWrite                  0      0     26
       -> HalUARTWrite                  0      0     26
       -> HalUARTWrite                  0      0     26
       -> HalUARTWrite                  0      0     26
       -> Temp_test                     0      0     26
       -> HalUARTWrite                  0      0     26
       -> HalUARTWrite                  0      0     26
     SampleApp_HandleKeys               0      0     22
       -> SampleApp_SendFlashMessage
                                        0      0     20
       -> aps_FindGroup                 0      0     20
       -> aps_RemoveGroup               0      0     20
       -> aps_AddGroup                  0      0     20
     SampleApp_Init                     0      0     14
       -> MT_UartInit                   0      0     22
       -> MT_UartRegisterTaskID         0      0     22
       -> HalUARTWrite                  0      0     22
       -> afRegister                    0      0     22
       -> RegisterForKeys               0      0     22
       -> osal_memcpy                   0      0     28
       -> aps_AddGroup                  0      0     22
       -> HalLcdWriteString             0      0     22
     SampleApp_MessageMSGCB             2      0     40
       -> HalUARTWrite                  0      0     56
       -> HalUARTWrite                  0      0     56
       -> HalUARTWrite                  0      0     56
       -> HalUARTWrite                  0      0     56
       -> HalUARTWrite                  0      0     56
       -> HalUARTWrite                  0      0     56
       -> HalUARTWrite                  0      0     56
       -> HalUARTWrite                  0      0     56
       -> HalUARTWrite                  0      0     56
       -> HalUARTWrite                  0      0     56
       -> HalUARTWrite                  0      0     56
       -> HalUARTWrite                  0      0     56
       -> HalUARTWrite                  0      0     56
       -> HalUARTWrite                  0      0     56
       -> HalUARTWrite                  0      0     56
       -> HalUARTWrite                  0      0     56
       -> HalUARTWrite                  0      0     56
       -> HalUARTWrite                  0      0     56
       -> HalUARTWrite                  0      0     56
     SampleApp_ProcessEvent             0      0     12
       -> osal_msg_receive              0      0     24
       -> osal_start_timerEx            0      0     24
       -> osal_msg_deallocate           0      0     24
       -> osal_msg_receive              0      0     24
       -> SampleApp_SerialCMD           0      0     24
       -> SampleApp_HandleKeys          0      0     24
       -> SampleApp_MessageMSGCB        0      0     24
       -> PrintSnesorData               0      0     24
       -> Sample_SendPointToPointMessage
                                        0      0     24
       -> osal_rand                     0      0     24
       -> osal_start_timerEx            0      0     24
     SampleApp_SendFlashMessage         1      0     32
       -> AF_DataRequest                0      0     44
     SampleApp_SendPeriodicMessage      0      0     19
       -> AF_DataRequest                0      0     38
     SampleApp_SerialCMD                0      0     33
       -> AF_DataRequest                0      0     42
     Sample_SendPointToPointMessage     1      0     37
       -> AF_DataRequest                0      0     50


   Segment part sizes:

     Function/Label                                 Bytes
     --------------                                 -----
     _A_P2                                             1
     P0SEL                                             1
     P2SEL                                             1
     P2INP                                             1
     P2DIR                                             1
     SampleApp_ClusterList                             8
     SampleApp_SimpleDesc                             12
     SampleApp_epDesc                                  6
     SampleApp_TaskID                                  1
     SampleApp_NwkState                                1
     SampleApp_TransID                                 1
     SampleApp_Periodic_DstAddr                       12
     SampleApp_Flash_DstAddr                          12
     Point_To_Point_DstAddr                           12
     SampleApp_Group                                  18
     SampleAppPeriodicCounter                          1
     SampleAppFlashCounter                             1
     SampleApp_Init                                  210
     SampleApp_ProcessEvent                          194
     ??Subroutine16_0                                  5
     SampleApp_HandleKeys                             62
     ??Subroutine18_0                                  5
     SampleApp_MessageMSGCB                          359
     ?Subroutine0                                      3
     ?Subroutine9                                      4
     ?Subroutine13                                    13
     ?Subroutine8                                     19
     ?Subroutine7                                     11
     ?Subroutine14                                     9
     ?Subroutine6                                      5
     ?Subroutine12                                     8
     ?Subroutine3                                      8
     ??Subroutine19_0                                 10
     ??Subroutine20_0                                 13
     SampleApp_SendPeriodicMessage                    57
     ?Subroutine10                                    10
     ??Subroutine17_0                                  6
     ?Subroutine1                                      3
     SampleApp_SendFlashMessage                      116
     SampleApp_SerialCMD                              80
     Sample_SendPointToPointMessage                  170
     ?Subroutine5                                      8
     ?Subroutine4                                     14
     ?Subroutine15                                    10
     ?Subroutine11                                    10
     PrintSnesorData                                 210
     ?Subroutine2                                      2
     ??SampleApp_Init?relay                            6
     ??SampleApp_ProcessEvent?relay                    6
     ??SampleApp_HandleKeys?relay                      6
     ??SampleApp_MessageMSGCB?relay                    6
     ??SampleApp_SendPeriodicMessage?relay             6
     ??SampleApp_SendFlashMessage?relay                6
     ??SampleApp_SerialCMD?relay                       6
     ??Sample_SendPointToPointMessage?relay            6
     ??PrintSnesorData?relay                           6
     ?<Constant "Hello World\n">                      13
     ?<Constant "Group 1">                             8
     ?<Constant "SampleApp">                          10
     ?<Constant {48, 49, 51, 52, 53, 54, 55, 56, 57   16
     ?<Constant "ROUTER ShortAddr:0x">                20
     ?<Constant "ENDDEVICE ShortAddr:0x">             23
     ?<Constant "\n">                                  2
     ?<Constant "Temp is:">                            9
     ?<Constant "Humidity is:">                       13
     ?<Constant "\r\n">                                3
     ?<Constant "light state:">                       13
     ?<Constant "no light\n">                         10
     ?<Constant "got light\n">                        11

 
 1 634 bytes in segment BANKED_CODE
    54 bytes in segment BANK_RELAYS
     5 bytes in segment SFR_AN
   171 bytes in segment XDATA_ROM_C
    65 bytes in segment XDATA_Z
 
 1 688 bytes of CODE  memory
   171 bytes of CONST memory
     0 bytes of DATA  memory (+ 5 bytes shared)
    65 bytes of XDATA memory

Errors: none
Warnings: 3
