###############################################################################
#                                                                             #
# IAR C/C++ Compiler V8.10.1.10194/W32 for 8051         29/Apr/2016  15:36:38 #
# Copyright 2004-2011 IAR Systems AB.                                         #
#                                                                             #
#    Core               =  plain                                              #
#    Code model         =  banked                                             #
#    Data model         =  large                                              #
#    Calling convention =  xdata reentrant                                    #
#    Constant location  =  data_rom                                           #
#    Dptr setup         =  1,16                                               #
#    Source file        =  C:\Users\Administrator\Desktop\code\整合2\节点\Pro #
#                          jects\zstack\Samples\SampleApp\Source\SampleApp.c  #
#    Command line       =  -f C:\Users\Administrator\Desktop\code\整合2\节点\ #
#                          Projects\zstack\Samples\SampleApp\CC2530DB\..\..\. #
#                          .\Tools\CC2530DB\f8wCoord.cfg (-DCPU32MHZ          #
#                          -DROOT=__near_func -DMAC_CFG_APP_PENDING_QUEUE=TRU #
#                          E -DMAC_CFG_TX_DATA_MAX=5 -DMAC_CFG_TX_MAX=8       #
#                          -DMAC_CFG_RX_MAX=5 -DZDO_COORDINATOR -DRTR_NWK)    #
#                          -f C:\Users\Administrator\Desktop\code\整合2\节点\ #
#                          Projects\zstack\Samples\SampleApp\CC2530DB\..\..\. #
#                          .\Tools\CC2530DB\f8wConfig.cfg (-DZIGBEEPRO        #
#                          -DSECURE=0 -DZG_SECURE_DYNAMIC=0 -DREFLECTOR       #
#                          -DDEFAULT_CHANLIST=0x00000800                      #
#                          -DZDAPP_CONFIG_PAN_ID=0xFF00                       #
#                          -DNWK_START_DELAY=100 -DEXTENDED_JOINING_RANDOM_MA #
#                          SK=0x007F -DBEACON_REQUEST_DELAY=100               #
#                          -DBEACON_REQ_DELAY_MASK=0x00FF                     #
#                          -DLINK_STATUS_JITTER_MASK=0x007F                   #
#                          -DROUTE_EXPIRY_TIME=30 -DAPSC_ACK_WAIT_DURATION_PO #
#                          LLED=3000 -DNWK_INDIRECT_MSG_TIMEOUT=7             #
#                          -DMAX_RREQ_ENTRIES=8 -DAPSC_MAX_FRAME_RETRIES=3    #
#                          -DNWK_MAX_DATA_RETRIES=2                           #
#                          -DMAX_POLL_FAILURE_RETRIES=2 -DMAX_BCAST=9         #
#                          -DAPS_MAX_GROUPS=16 -DMAX_RTG_ENTRIES=40           #
#                          -DNWK_MAX_BINDING_ENTRIES=4                        #
#                          -DMAX_BINDING_CLUSTER_IDS=4 "-DDEFAULT_KEY={0x01,  #
#                          0x03, 0x05, 0x07, 0x09, 0x0B, 0x0D, 0x0F, 0x00,    #
#                          0x02, 0x04, 0x06, 0x08, 0x0A, 0x0C, 0x0D}"         #
#                          -DMAC_MAX_FRAME_SIZE=116                           #
#                          -DZDNWKMGR_MIN_TRANSMISSIONS=20 "-DCONST=const     #
#                          __code" -DGENERIC=__generic                        #
#                          -DRFD_RCVC_ALWAYS_ON=FALSE -DPOLL_RATE=1000        #
#                          -DQUEUED_POLL_RATE=100 -DRESPONSE_POLL_RATE=100)   #
#                          -DREJOIN_POLL_RATE=440 C:\Users\Administrator\Desk #
#                          top\code\整合2\节点\Projects\zstack\Samples\Sample #
#                          App\Source\SampleApp.c -D ZTOOL_P1 -D xMT_TASK -D  #
#                          xMT_SYS_FUNC -D xMT_ZDO_FUNC -D                    #
#                          LCD_SUPPORTED=DEBUG -lC C:\Users\Administrator\Des #
#                          ktop\code\整合2\节点\Projects\zstack\Samples\Sampl #
#                          eApp\CC2530DB\CoordinatorEB\List\ -lA              #
#                          C:\Users\Administrator\Desktop\code\整合2\节点\Pro #
#                          jects\zstack\Samples\SampleApp\CC2530DB\Coordinato #
#                          rEB\List\ --diag_suppress Pe001,Pa010 -o           #
#                          C:\Users\Administrator\Desktop\code\整合2\节点\Pro #
#                          jects\zstack\Samples\SampleApp\CC2530DB\Coordinato #
#                          rEB\Obj\ -e --no_code_motion --debug --core=plain  #
#                          --dptr=16,1 --data_model=large                     #
#                          --code_model=banked --calling_convention=xdata_ree #
#                          ntrant --place_constants=data_rom                  #
#                          --nr_virtual_regs 16 -I C:\Users\Administrator\Des #
#                          ktop\code\整合2\节点\Projects\zstack\Samples\Sampl #
#                          eApp\CC2530DB\ -I C:\Users\Administrator\Desktop\c #
#                          ode\整合2\节点\Projects\zstack\Samples\SampleApp\C #
#                          C2530DB\..\Source\ -I C:\Users\Administrator\Deskt #
#                          op\code\整合2\节点\Projects\zstack\Samples\SampleA #
#                          pp\CC2530DB\..\..\..\ZMain\TI2530DB\ -I            #
#                          C:\Users\Administrator\Desktop\code\整合2\节点\Pro #
#                          jects\zstack\Samples\SampleApp\CC2530DB\..\..\..\. #
#                          .\..\Components\hal\include\ -I                    #
#                          C:\Users\Administrator\Desktop\code\整合2\节点\Pro #
#                          jects\zstack\Samples\SampleApp\CC2530DB\..\..\..\. #
#                          .\..\Components\hal\target\CC2530EB\ -I            #
#                          C:\Users\Administrator\Desktop\code\整合2\节点\Pro #
#                          jects\zstack\Samples\SampleApp\CC2530DB\..\..\..\. #
#                          .\..\Components\mac\include\ -I                    #
#                          C:\Users\Administrator\Desktop\code\整合2\节点\Pro #
#                          jects\zstack\Samples\SampleApp\CC2530DB\..\..\..\. #
#                          .\..\Components\mac\high_level\ -I                 #
#                          C:\Users\Administrator\Desktop\code\整合2\节点\Pro #
#                          jects\zstack\Samples\SampleApp\CC2530DB\..\..\..\. #
#                          .\..\Components\mac\low_level\srf04\ -I            #
#                          C:\Users\Administrator\Desktop\code\整合2\节点\Pro #
#                          jects\zstack\Samples\SampleApp\CC2530DB\..\..\..\. #
#                          .\..\Components\mac\low_level\srf04\single_chip\   #
#                          -I C:\Users\Administrator\Desktop\code\整合2\节点\ #
#                          Projects\zstack\Samples\SampleApp\CC2530DB\..\..\. #
#                          .\..\..\Components\mt\ -I                          #
#                          C:\Users\Administrator\Desktop\code\整合2\节点\Pro #
#                          jects\zstack\Samples\SampleApp\CC2530DB\..\..\..\. #
#                          .\..\Components\osal\include\ -I                   #
#                          C:\Users\Administrator\Desktop\code\整合2\节点\Pro #
#                          jects\zstack\Samples\SampleApp\CC2530DB\..\..\..\. #
#                          .\..\Components\services\saddr\ -I                 #
#                          C:\Users\Administrator\Desktop\code\整合2\节点\Pro #
#                          jects\zstack\Samples\SampleApp\CC2530DB\..\..\..\. #
#                          .\..\Components\services\sdata\ -I                 #
#                          C:\Users\Administrator\Desktop\code\整合2\节点\Pro #
#                          jects\zstack\Samples\SampleApp\CC2530DB\..\..\..\. #
#                          .\..\Components\stack\af\ -I                       #
#                          C:\Users\Administrator\Desktop\code\整合2\节点\Pro #
#                          jects\zstack\Samples\SampleApp\CC2530DB\..\..\..\. #
#                          .\..\Components\stack\nwk\ -I                      #
#                          C:\Users\Administrator\Desktop\code\整合2\节点\Pro #
#                          jects\zstack\Samples\SampleApp\CC2530DB\..\..\..\. #
#                          .\..\Components\stack\sapi\ -I                     #
#                          C:\Users\Administrator\Desktop\code\整合2\节点\Pro #
#                          jects\zstack\Samples\SampleApp\CC2530DB\..\..\..\. #
#                          .\..\Components\stack\sec\ -I                      #
#                          C:\Users\Administrator\Desktop\code\整合2\节点\Pro #
#                          jects\zstack\Samples\SampleApp\CC2530DB\..\..\..\. #
#                          .\..\Components\stack\sys\ -I                      #
#                          C:\Users\Administrator\Desktop\code\整合2\节点\Pro #
#                          jects\zstack\Samples\SampleApp\CC2530DB\..\..\..\. #
#                          .\..\Components\stack\zdo\ -I                      #
#                          C:\Users\Administrator\Desktop\code\整合2\节点\Pro #
#                          jects\zstack\Samples\SampleApp\CC2530DB\..\..\..\. #
#                          .\..\Components\zmac\ -I                           #
#                          C:\Users\Administrator\Desktop\code\整合2\节点\Pro #
#                          jects\zstack\Samples\SampleApp\CC2530DB\..\..\..\. #
#                          .\..\Components\zmac\f8w\ -Ohz                     #
#    List file          =  C:\Users\Administrator\Desktop\code\整合2\节点\Pro #
#                          jects\zstack\Samples\SampleApp\CC2530DB\Coordinato #
#                          rEB\List\SampleApp.lst                             #
#    Object file        =  C:\Users\Administrator\Desktop\code\整合2\节点\Pro #
#                          jects\zstack\Samples\SampleApp\CC2530DB\Coordinato #
#                          rEB\Obj\SampleApp.r51                              #
#                                                                             #
#                                                                             #
###############################################################################

C:\Users\Administrator\Desktop\code\整合2\节点\Projects\zstack\Samples\SampleApp\Source\SampleApp.c
      1          /*********************************************************************
      2            This application isn't intended to do anything useful, it is
      3            intended to be a simple example of an application's structure.
      4          
      5            This application sends it's messages either as broadcast or
      6            broadcast filtered group messages.  The other (more normal)
      7            message addressing is unicast.  Most of the other sample
      8            applications are written to support the unicast message model.
      9          
     10            Key control:
     11              SW1:  Sends a flash command to all devices in Group 1.
     12              SW2:  Adds/Removes (toggles) this device in and out
     13                    of Group 1.  This will enable and disable the
     14                    reception of the flash command.
     15          *********************************************************************/
     16          
     17          /*********************************************************************
     18           * INCLUDES
     19           */
     20          #include <string.h>
     21          #include <stdlib.h>
     22          #include "OSAL.h"
     23          #include "ZGlobals.h"
     24          #include "AF.h"
     25          #include "aps_groups.h"
     26          #include "ZDApp.h"
     27          
     28          #include "SampleApp.h"
     29          #include "SampleAppHw.h"
     30          
     31          #include "OnBoard.h"

   \                                 In  segment SFR_AN, at 0x80
   \   union <unnamed> volatile __sfr _A_P0
   \                     _A_P0:
   \   000000                DS 1

   \                                 In  segment SFR_AN, at 0x90
   \   union <unnamed> volatile __sfr _A_P1
   \                     _A_P1:
   \   000000                DS 1

   \                                 In  segment SFR_AN, at 0xa0
   \   union <unnamed> volatile __sfr _A_P2
   \                     _A_P2:
   \   000000                DS 1
     32          
     33          /* HAL */
     34          #include "hal_lcd.h"
     35          #include "hal_led.h"
     36          #include "hal_key.h"
     37          
     38          #include  "MT_UART.h" 
     39          #include  "MT.h"
     40          
     41          /*for sensor*/
     42          #include "DHT11.h"
     43          #include "ds18b20.h"
     44          #include "relay.h"
     45          #include "input.h"
     46          #include "bh1750.h"

  #ifndef __BH1750_H__
                     ^
"C:\Users\Administrator\Desktop\code\整合2\节点\Projects\zstack\Samples\SampleApp\Source\bh1750.h",1  Warning[Pa050]: 
          non-native end of line sequence detected (this diagnostic is only
          issued once)
     47          
     48          #define SENSORTYPE1 DHT11 //chose sensor type
     49          #define SENSORTYPE2  FIRE_TYPE
     50          //#define SENSORTYPE3  GAS_TYPE_ON
     51          //#define SENSORTYPE4  LIGHTED 
     52          //#define SENSORTYPE9 BH1750_TYPE
     53          
     54          #define BYTE0(dwTemp)       ( *( (char *)(&dwTemp)    ) )
     55          #define BYTE1(dwTemp)       ( *( (char *)(&dwTemp) + 1) )
     56          #define BYTE2(dwTemp)       ( *( (char *)(&dwTemp) + 2) )
     57          #define BYTE3(dwTemp)       ( *( (char *)(&dwTemp) + 3) )
     58          /*********************************************************************
     59           * MACROS
     60           */
     61          
     62          /*********************************************************************
     63           * CONSTANTS
     64           */
     65          
     66          /*********************************************************************
     67           * TYPEDEFS
     68           */
     69          
     70          /*********************************************************************
     71           * GLOBAL VARIABLES
     72           */
     73          
     74          // This list should be filled with Application specific Cluster IDs.

   \                                 In  segment XDATA_ROM_C, align 1
     75          const cId_t SampleApp_ClusterList[SAMPLEAPP_MAX_CLUSTERS] =
   \                     SampleApp_ClusterList:
   \   000000   0100         DW 1
   \   000002   0200         DW 2
   \   000004   0000         DW 0
   \   000006   0000         DW 0
     76          {
     77            SAMPLEAPP_PERIODIC_CLUSTERID,
     78            SAMPLEAPP_FLASH_CLUSTERID
     79          };
     80          

   \                                 In  segment XDATA_ROM_C, align 1
     81          const SimpleDescriptionFormat_t SampleApp_SimpleDesc =
   \                     SampleApp_SimpleDesc:
   \   000000   14           DB 20
   \   000001   080F         DW 3848
   \   000003   0100         DW 1
   \   000005   00           DB 0
   \   000006   04           DB 4
   \   000007   ....         DW SampleApp_ClusterList
   \   000009   04           DB 4
   \   00000A   ....         DW SampleApp_ClusterList
     82          {
     83            SAMPLEAPP_ENDPOINT,              //  int Endpoint;
     84            SAMPLEAPP_PROFID,                //  uint16 AppProfId[2];
     85            SAMPLEAPP_DEVICEID,              //  uint16 AppDeviceId[2];
     86            SAMPLEAPP_DEVICE_VERSION,        //  int   AppDevVer:4;
     87            SAMPLEAPP_FLAGS,                 //  int   AppFlags:4;
     88            SAMPLEAPP_MAX_CLUSTERS,          //  uint8  AppNumInClusters;
     89            (cId_t *)SampleApp_ClusterList,  //  uint8 *pAppInClusterList;
     90            SAMPLEAPP_MAX_CLUSTERS,          //  uint8  AppNumInClusters;
     91            (cId_t *)SampleApp_ClusterList   //  uint8 *pAppInClusterList;
     92          };
     93          
     94          // This is the Endpoint/Interface description.  It is defined here, but
     95          // filled-in in SampleApp_Init().  Another way to go would be to fill
     96          // in the structure here and make it a "const" (in code space).  The
     97          // way it's defined in this sample app it is define in RAM.

   \                                 In  segment XDATA_Z, align 1, keep-with-next
     98          endPointDesc_t SampleApp_epDesc;
   \                     SampleApp_epDesc:
   \   000000                DS 6
   \   000006                REQUIRE __INIT_XDATA_Z
     99          
    100          /*********************************************************************
    101           * EXTERNAL VARIABLES
    102           */
    103          
    104          /*********************************************************************
    105           * EXTERNAL FUNCTIONS
    106           */
    107          
    108          /*********************************************************************
    109           * LOCAL VARIABLES
    110           */

   \                                 In  segment XDATA_Z, align 1, keep-with-next
    111          uint8 SampleApp_TaskID;   // Task ID for internal task/event processing
   \                     SampleApp_TaskID:
   \   000000                DS 1
   \   000001                REQUIRE __INIT_XDATA_Z
    112                                    // This variable will be received when
    113                                    // SampleApp_Init() is called.

   \                                 In  segment XDATA_Z, align 1, keep-with-next
    114          devStates_t SampleApp_NwkState;
   \                     SampleApp_NwkState:
   \   000000                DS 1
   \   000001                REQUIRE __INIT_XDATA_Z
    115          

   \                                 In  segment XDATA_Z, align 1, keep-with-next
    116          uint8 SampleApp_TransID;  // This is the unique message ID (counter)
   \                     SampleApp_TransID:
   \   000000                DS 1
   \   000001                REQUIRE __INIT_XDATA_Z
    117          
    118          /*contact method*/

   \                                 In  segment XDATA_Z, align 1, keep-with-next
    119          afAddrType_t SampleApp_Periodic_DstAddr;
   \                     SampleApp_Periodic_DstAddr:
   \   000000                DS 12
   \   00000C                REQUIRE __INIT_XDATA_Z

   \                                 In  segment XDATA_Z, align 1, keep-with-next
    120          afAddrType_t SampleApp_Flash_DstAddr;
   \                     SampleApp_Flash_DstAddr:
   \   000000                DS 12
   \   00000C                REQUIRE __INIT_XDATA_Z

   \                                 In  segment XDATA_Z, align 1, keep-with-next
    121          afAddrType_t Point_To_Point_DstAddr;
   \                     Point_To_Point_DstAddr:
   \   000000                DS 12
   \   00000C                REQUIRE __INIT_XDATA_Z
    122          

   \                                 In  segment XDATA_Z, align 1, keep-with-next
    123          aps_Group_t SampleApp_Group;
   \                     SampleApp_Group:
   \   000000                DS 18
   \   000012                REQUIRE __INIT_XDATA_Z
    124          

   \                                 In  segment XDATA_Z, align 1, keep-with-next
    125          uint8 SampleAppPeriodicCounter = 0;
   \                     SampleAppPeriodicCounter:
   \   000000                DS 1
   \   000001                REQUIRE __INIT_XDATA_Z

   \                                 In  segment XDATA_Z, align 1, keep-with-next
    126          uint8 SampleAppFlashCounter = 0;
   \                     SampleAppFlashCounter:
   \   000000                DS 1
   \   000001                REQUIRE __INIT_XDATA_Z
    127          

   \                                 In  segment XDATA_Z, align 1, keep-with-next
    128          uint8 RxData[20]={0};
   \                     RxData:
   \   000000                DS 20
   \   000014                REQUIRE __INIT_XDATA_Z

   \                                 In  segment XDATA_Z, align 1, keep-with-next
    129          uint8 RxDataLen=0;
   \                     RxDataLen:
   \   000000                DS 1
   \   000001                REQUIRE __INIT_XDATA_Z

   \                                 In  segment XDATA_Z, align 1, keep-with-next
    130          uint8 deviceid;
   \                     deviceid:
   \   000000                DS 1
   \   000001                REQUIRE __INIT_XDATA_Z

   \                                 In  segment XDATA_Z, align 1, keep-with-next
    131          uint8 data_to_send[50];
   \                     data_to_send:
   \   000000                DS 50
   \   000032                REQUIRE __INIT_XDATA_Z
    132          

   \                                 In  segment XDATA_Z, align 1, keep-with-next
    133          SER SerData[10];
   \                     SerData:
   \   000000                DS 60
   \   00003C                REQUIRE __INIT_XDATA_Z
    134          /*********************************************************************
    135           * LOCAL FUNCTIONS
    136           */
    137          void SampleApp_HandleKeys( uint8 shift, uint8 keys );
    138          void SampleApp_MessageMSGCB( afIncomingMSGPacket_t *pckt );
    139          void SampleApp_SendPeriodicMessage( void );
    140          void SampleApp_SendFlashMessage( uint16 flashTime );
    141          void SampleApp_SerialCMD(mtOSALSerialData_t *cmdMsg);
    142          void Sample_SendPointToPointMessage(void);
    143          void PrintSnesorData(uint8 sensortype);
    144          void SendSensorData(uint8 deviceid,uint16 deviceShortAddress,uint8 sensorid,uint16 data1,uint16 data2);
    145          void DataEncode(uint8 deviceid,uint16 deviceShortAddress,SER*p,char *DataOut);
    146          void UartPrintString(char *tar);
    147          void UartPrintNum(int num);
    148          /*********************************************************************
    149           * NETWORK LAYER CALLBACKS
    150           */
    151          
    152          /*********************************************************************
    153           * PUBLIC FUNCTIONS
    154           */
    155          
    156          /*********************************************************************
    157           * @fn      SampleApp_Init
    158           *
    159           * @brief   Initialization function for the Generic App Task.
    160           *          This is called during initialization and should contain
    161           *          any application specific initialization (ie. hardware
    162           *          initialization/setup, table initialization, power up
    163           *          notificaiton ... ).
    164           *
    165           * @param   task_id - the ID assigned by OSAL.  This ID should be
    166           *                    used to send messages and set timers.
    167           *
    168           * @return  none
    169           */

   \                                 In  segment BANKED_CODE, align 1, keep-with-next
    170          void SampleApp_Init( uint8 task_id )
   \                     SampleApp_Init:
    171          {
   \   000000   74F5         MOV     A,#-0xb
   \   000002   12....       LCALL   ?BANKED_ENTER_XDATA
   \   000005                ; Saved register size: 11
   \   000005                ; Auto size: 0
   \   000005   E9           MOV     A,R1
   \   000006   FE           MOV     R6,A
    172            SampleApp_TaskID = task_id;
   \   000007   90....       MOV     DPTR,#SampleApp_TaskID
   \   00000A   F0           MOVX    @DPTR,A
    173            SampleApp_NwkState = DEV_INIT;
   \   00000B   90....       MOV     DPTR,#SampleApp_NwkState
   \   00000E   7401         MOV     A,#0x1
   \   000010   F0           MOVX    @DPTR,A
    174            SampleApp_TransID = 0;
   \   000011   90....       MOV     DPTR,#SampleApp_TransID
   \   000014   E4           CLR     A
   \   000015   F0           MOVX    @DPTR,A
    175            
    176            MT_UartInit();
   \   000016                ; Setup parameters for call to function MT_UartInit
   \   000016   12....       LCALL   ??MT_UartInit?relay
    177            MT_UartRegisterTaskID(task_id);
   \   000019                ; Setup parameters for call to function MT_UartRegisterTaskID
   \   000019   EE           MOV     A,R6
   \   00001A   F9           MOV     R1,A
   \   00001B   12....       LCALL   ??MT_UartRegisterTaskID?relay
    178            HalUARTWrite(0,"Hello World\n",12); 
   \   00001E                ; Setup parameters for call to function HalUARTWrite
   \   00001E   7C0C         MOV     R4,#0xc
   \   000020   7D00         MOV     R5,#0x0
   \   000022   7A..         MOV     R2,#`?<Constant "Hello World\\n">` & 0xff
   \   000024   7B..         MOV     R3,#(`?<Constant "Hello World\\n">` >> 8) & 0xff
   \   000026   7900         MOV     R1,#0x0
   \   000028   12....       LCALL   ??HalUARTWrite?relay
    179            
    180            UartPrintString("FIRE_TYPE:");
   \   00002B                ; Setup parameters for call to function UartPrintString
   \   00002B   7A..         MOV     R2,#`?<Constant "FIRE_TYPE:">` & 0xff
   \   00002D   7B..         MOV     R3,#(`?<Constant "FIRE_TYPE:">` >> 8) & 0xff
   \   00002F   12....       LCALL   ??UartPrintString?relay
    181            UartPrintNum(33);
   \   000032                ; Setup parameters for call to function UartPrintNum
   \   000032   7A21         MOV     R2,#0x21
   \   000034   7B00         MOV     R3,#0x0
   \   000036   12....       LCALL   ??UartPrintNum?relay
    182            
    183            deviceid=DEVICE1ID; 
   \   000039   90....       MOV     DPTR,#deviceid
   \   00003C   7401         MOV     A,#0x1
   \   00003E   F0           MOVX    @DPTR,A
    184          
    185            /*sensor init*/
    186            //#define DHT11_ON 1
    187            //#define LIGHTED_ON 2
    188            //#define DS18B20_ON 3
    189            // #define MOTOR_ON 4
    190            //#define GAS_TYPE_ON 5
    191            //#define RAIN_TYPE_ON 6
    192            #define FIRE_TYPE_ON 7
    193            // #define MAN_TYPE_ON 8
    194            #define BH1750_TYPE_ON  9
    195          
    196            #ifdef DHT11_ON
    197            P0SEL &=0xef;//dht11 init  
    198            #endif
    199          
    200            #ifdef LIGHTED_ON
    201            P2SEL &=~0x01;
    202            P2DIR &=~0x01;
    203            P2INP &=~0x01;//light sensor init
    204            #endif
    205          
    206            #ifdef DS18B20_ON
    207            P0SEL &=0xdf;//ds18b20 init  
    208            #endif
    209          
    210            #ifdef MOTOR_ON
    211            RelayInit();
    212            #endif
    213          
    214            #ifdef GAS_TYPE_ON
    215            InitGas(); 
    216            #endif
    217          
    218            #ifdef RAIN_TYPE_ON
    219            InitRain(); 
    220            #endif
    221          
    222            #ifdef FIRE_TYPE_ON
    223            InitFire();  
   \   00003F                ; Setup parameters for call to function InitFire
   \   00003F   12....       LCALL   ??InitFire?relay
    224            #endif
    225          
    226            #ifdef MAN_TYPE_ON
    227             
    228            #endif  
    229          
    230            #ifdef BH1750_TYPE_ON
    231            Bh1750_Init();
   \   000042                ; Setup parameters for call to function Bh1750_Init
   \   000042   12....       LCALL   ??Bh1750_Init?relay
    232            #endif    
    233            
    234            // Device hardware initialization can be added here or in main() (Zmain.c).
    235            // If the hardware is application specific - add it here.
    236            // If the hardware is other parts of the device add it in main().
    237          
    238           #if defined ( BUILD_ALL_DEVICES )
    239            // The "Demo" target is setup to have BUILD_ALL_DEVICES and HOLD_AUTO_START
    240            // We are looking at a jumper (defined in SampleAppHw.c) to be jumpered
    241            // together - if they are - we will start up a coordinator. Otherwise,
    242            // the device will start as a router.
    243            if ( readCoordinatorJumper() )
    244              zgDeviceLogicalType = ZG_DEVICETYPE_COORDINATOR;
    245            else
    246              zgDeviceLogicalType = ZG_DEVICETYPE_ROUTER;
    247          #endif // BUILD_ALL_DEVICES
    248          
    249          #if defined ( HOLD_AUTO_START )
    250            // HOLD_AUTO_START is a compile option that will surpress ZDApp
    251            //  from starting the device and wait for the application to
    252            //  start the device.
    253            ZDOInitDevice(0);
    254          #endif
    255          
    256            // Setup for the periodic message's destination address
    257            // Broadcast to everyone
    258            SampleApp_Periodic_DstAddr.addrMode = (afAddrMode_t)AddrBroadcast;
   \   000045   90....       MOV     DPTR,#SampleApp_Periodic_DstAddr + 8
   \   000048   740F         MOV     A,#0xf
   \   00004A   F0           MOVX    @DPTR,A
    259            SampleApp_Periodic_DstAddr.endPoint = SAMPLEAPP_ENDPOINT;
   \   00004B   A3           INC     DPTR
   \   00004C   7414         MOV     A,#0x14
   \   00004E   F0           MOVX    @DPTR,A
    260            SampleApp_Periodic_DstAddr.addr.shortAddr = 0xFFFF;
   \   00004F   90....       MOV     DPTR,#SampleApp_Periodic_DstAddr
   \   000052   74FF         MOV     A,#-0x1
   \   000054   F0           MOVX    @DPTR,A
   \   000055   A3           INC     DPTR
   \   000056   F0           MOVX    @DPTR,A
    261          
    262            // Setup for the flash command's destination address - Group 1
    263            SampleApp_Flash_DstAddr.addrMode = (afAddrMode_t)afAddrGroup;
   \   000057   90....       MOV     DPTR,#SampleApp_Flash_DstAddr + 8
   \   00005A   7401         MOV     A,#0x1
   \   00005C   F0           MOVX    @DPTR,A
    264            SampleApp_Flash_DstAddr.endPoint = SAMPLEAPP_ENDPOINT;
   \   00005D   A3           INC     DPTR
   \   00005E   7414         MOV     A,#0x14
   \   000060   F0           MOVX    @DPTR,A
    265            SampleApp_Flash_DstAddr.addr.shortAddr = SAMPLEAPP_FLASH_GROUP;
   \   000061   90....       MOV     DPTR,#SampleApp_Flash_DstAddr
   \   000064   7401         MOV     A,#0x1
   \   000066   F0           MOVX    @DPTR,A
   \   000067   A3           INC     DPTR
   \   000068   E4           CLR     A
   \   000069   F0           MOVX    @DPTR,A
    266          
    267            //Setup for the Point to Point message's destination address
    268            Point_To_Point_DstAddr.addrMode=(afAddrMode_t)Addr16Bit;
   \   00006A   90....       MOV     DPTR,#Point_To_Point_DstAddr + 8
   \   00006D   7402         MOV     A,#0x2
   \   00006F   F0           MOVX    @DPTR,A
    269            Point_To_Point_DstAddr.endPoint=SAMPLEAPP_ENDPOINT;
   \   000070   A3           INC     DPTR
   \   000071   7414         MOV     A,#0x14
   \   000073   F0           MOVX    @DPTR,A
    270            Point_To_Point_DstAddr.addr.shortAddr=0x0000;
   \   000074   90....       MOV     DPTR,#Point_To_Point_DstAddr
   \   000077   E4           CLR     A
   \   000078   F0           MOVX    @DPTR,A
   \   000079   A3           INC     DPTR
   \   00007A   F0           MOVX    @DPTR,A
    271          
    272            // Fill out the endpoint description.
    273            SampleApp_epDesc.endPoint = SAMPLEAPP_ENDPOINT;
   \   00007B   90....       MOV     DPTR,#SampleApp_epDesc
   \   00007E   7414         MOV     A,#0x14
   \   000080   F0           MOVX    @DPTR,A
    274            SampleApp_epDesc.task_id = &SampleApp_TaskID;
   \   000081   A3           INC     DPTR
   \   000082   74..         MOV     A,#SampleApp_TaskID & 0xff
   \   000084   F0           MOVX    @DPTR,A
   \   000085   A3           INC     DPTR
   \   000086   74..         MOV     A,#(SampleApp_TaskID >> 8) & 0xff
   \   000088   F0           MOVX    @DPTR,A
    275            SampleApp_epDesc.simpleDesc
    276                      = (SimpleDescriptionFormat_t *)&SampleApp_SimpleDesc;
   \   000089   A3           INC     DPTR
   \   00008A   74..         MOV     A,#SampleApp_SimpleDesc & 0xff
   \   00008C   F0           MOVX    @DPTR,A
   \   00008D   A3           INC     DPTR
   \   00008E   74..         MOV     A,#(SampleApp_SimpleDesc >> 8) & 0xff
   \   000090   F0           MOVX    @DPTR,A
    277            SampleApp_epDesc.latencyReq = noLatencyReqs;
   \   000091   A3           INC     DPTR
   \   000092   E4           CLR     A
   \   000093   F0           MOVX    @DPTR,A
    278          
    279            // Register the endpoint description with the AF
    280            afRegister( &SampleApp_epDesc );
   \   000094                ; Setup parameters for call to function afRegister
   \   000094   7A..         MOV     R2,#SampleApp_epDesc & 0xff
   \   000096   7B..         MOV     R3,#(SampleApp_epDesc >> 8) & 0xff
   \   000098   12....       LCALL   ??afRegister?relay
    281          
    282            // Register for all key events - This app will handle all key events
    283            RegisterForKeys( SampleApp_TaskID );
   \   00009B                ; Setup parameters for call to function RegisterForKeys
   \   00009B   90....       MOV     DPTR,#SampleApp_TaskID
   \   00009E   E0           MOVX    A,@DPTR
   \   00009F   F9           MOV     R1,A
   \   0000A0   12....       LCALL   ??RegisterForKeys?relay
    284          
    285            // By default, all devices start out in Group 1
    286            SampleApp_Group.ID = 0x0001;
   \   0000A3   90....       MOV     DPTR,#SampleApp_Group
   \   0000A6   7401         MOV     A,#0x1
   \   0000A8   F0           MOVX    @DPTR,A
   \   0000A9   A3           INC     DPTR
   \   0000AA   E4           CLR     A
   \   0000AB   F0           MOVX    @DPTR,A
    287            osal_memcpy( SampleApp_Group.name, "Group 1", 7  );
   \   0000AC                ; Setup parameters for call to function osal_memcpy
   \   0000AC   75....       MOV     ?V0 + 0,#`?<Constant "Group 1">` & 0xff
   \   0000AF   75....       MOV     ?V0 + 1,#(`?<Constant "Group 1">` >> 8) & 0xff
   \   0000B2   F5..         MOV     ?V0 + 2,A
   \   0000B4   78..         MOV     R0,#?V0 + 0
   \   0000B6   12....       LCALL   ?PUSH_XSTACK_I_THREE
   \   0000B9   7C07         MOV     R4,#0x7
   \   0000BB   7D00         MOV     R5,#0x0
   \   0000BD   7A..         MOV     R2,#(SampleApp_Group + 2) & 0xff
   \   0000BF   7B..         MOV     R3,#((SampleApp_Group + 2) >> 8) & 0xff
   \   0000C1   12....       LCALL   ??osal_memcpy?relay
   \   0000C4   7403         MOV     A,#0x3
   \   0000C6   12....       LCALL   ?DEALLOC_XSTACK8
    288            aps_AddGroup( SAMPLEAPP_ENDPOINT, &SampleApp_Group );
   \   0000C9                ; Setup parameters for call to function aps_AddGroup
   \   0000C9   7A..         MOV     R2,#SampleApp_Group & 0xff
   \   0000CB   7B..         MOV     R3,#(SampleApp_Group >> 8) & 0xff
   \   0000CD   7914         MOV     R1,#0x14
   \   0000CF   12....       LCALL   ??aps_AddGroup?relay
    289          
    290          #if defined ( LCD_SUPPORTED )
    291            HalLcdWriteString( "SampleApp", HAL_LCD_LINE_1 );
   \   0000D2                ; Setup parameters for call to function HalLcdWriteString
   \   0000D2   7901         MOV     R1,#0x1
   \   0000D4   7A..         MOV     R2,#`?<Constant "SampleApp">` & 0xff
   \   0000D6   7B..         MOV     R3,#(`?<Constant "SampleApp">` >> 8) & 0xff
   \   0000D8   12....       LCALL   ??HalLcdWriteString?relay
    292          #endif
    293          }
   \   0000DB   02....       LJMP    ??Subroutine19_0 & 0xFFFF

   \                                 In  segment BANKED_CODE, align 1, keep-with-next
   \                     ??Subroutine19_0:
   \   000000   7F03         MOV     R7,#0x3
   \   000002   02....       LJMP    ?BANKED_LEAVE_XDATA
    294          
    295          /*********************************************************************
    296           * @fn      SampleApp_ProcessEvent
    297           *
    298           * @brief   Generic Application Task event processor.  This function
    299           *          is called to process all events for the task.  Events
    300           *          include timers, messages and any other user defined events.
    301           *
    302           * @param   task_id  - The OSAL assigned task ID.
    303           * @param   events - events to process.  This is a bit map and can
    304           *                   contain more than one event.
    305           *
    306           * @return  none
    307           */

   \                                 In  segment BANKED_CODE, align 1, keep-with-next
    308          uint16 SampleApp_ProcessEvent( uint8 task_id, uint16 events )
   \                     SampleApp_ProcessEvent:
    309          {
   \   000000   74F4         MOV     A,#-0xc
   \   000002   12....       LCALL   ?BANKED_ENTER_XDATA
   \   000005                ; Saved register size: 12
   \   000005                ; Auto size: 0
   \   000005   EA           MOV     A,R2
   \   000006   FE           MOV     R6,A
   \   000007   EB           MOV     A,R3
   \   000008   FF           MOV     R7,A
    310            afIncomingMSGPacket_t *MSGpkt;
    311            (void)task_id;  // Intentionally unreferenced parameter
    312          
    313            if ( events & SYS_EVENT_MSG )
   \   000009   5480         ANL     A,#0x80
   \   00000B   7003         JNZ     $+5
   \   00000D   02....       LJMP    ??SampleApp_ProcessEvent_0 & 0xFFFF
    314            {
    315              MSGpkt = (afIncomingMSGPacket_t *)osal_msg_receive( SampleApp_TaskID );
   \   000010                ; Setup parameters for call to function osal_msg_receive
   \   000010   8026         SJMP    ??SampleApp_ProcessEvent_1
    316              while ( MSGpkt )
    317              {
    318                switch ( MSGpkt->hdr.event )
    319                {
    320                  case CMD_SERIAL_MSG:  
    321                   SampleApp_SerialCMD((mtOSALSerialData_t *)MSGpkt);
    322                   break;
    323          
    324                  // Received when a key is pressed
    325                    case KEY_CHANGE:
    326                    SampleApp_HandleKeys( ((keyChange_t *)MSGpkt)->state, ((keyChange_t *)MSGpkt)->keys );
    327                    break;
    328          
    329                  // Received when a messages is received (OTA) for this endpoint
    330                  case AF_INCOMING_MSG_CMD:
    331                    SampleApp_MessageMSGCB( MSGpkt );
    332                    break;
    333          
    334                  // Received whenever the device changes state in the network
    335                  case ZDO_STATE_CHANGE:
    336                    SampleApp_NwkState = (devStates_t)(MSGpkt->hdr.status);
   \                     ??SampleApp_ProcessEvent_2:
   \   000012   A3           INC     DPTR
   \   000013   E0           MOVX    A,@DPTR
   \   000014   90....       MOV     DPTR,#SampleApp_NwkState
   \   000017   F0           MOVX    @DPTR,A
    337                    if ( //(SampleApp_NwkState == DEV_ZB_COORD)   
    338                         (SampleApp_NwkState == DEV_ROUTER)
    339                        || (SampleApp_NwkState == DEV_END_DEVICE) )
   \   000018   6407         XRL     A,#0x7
   \   00001A   6005         JZ      ??SampleApp_ProcessEvent_3
   \   00001C   E0           MOVX    A,@DPTR
   \   00001D   6406         XRL     A,#0x6
   \   00001F   7010         JNZ     ??SampleApp_ProcessEvent_4
    340                    {
    341                      // Start sending the periodic message in a regular interval.
    342                      osal_start_timerEx( SampleApp_TaskID,
    343                                        SAMPLEAPP_SEND_PERIODIC_MSG_EVT,
    344                                        SAMPLEAPP_SEND_PERIODIC_MSG_TIMEOUT );
   \                     ??SampleApp_ProcessEvent_3:
   \   000021                ; Setup parameters for call to function osal_start_timerEx
   \   000021   7CE8         MOV     R4,#-0x18
   \   000023   7D03         MOV     R5,#0x3
   \   000025   7A01         MOV     R2,#0x1
   \   000027   7B00         MOV     R3,#0x0
   \   000029   90....       MOV     DPTR,#SampleApp_TaskID
   \   00002C   E0           MOVX    A,@DPTR
   \   00002D   F9           MOV     R1,A
   \   00002E   12....       LCALL   ??osal_start_timerEx?relay
    345                    }
    346                    else
    347                    {
    348                      // Device is no longer in the network
    349                    }
    350                    break;
    351          
    352                  default:
    353                    break;
    354                }
    355          
    356                // Release the memory
    357                osal_msg_deallocate( (uint8 *)MSGpkt );
   \                     ??SampleApp_ProcessEvent_4:
   \   000031                ; Setup parameters for call to function osal_msg_deallocate
   \   000031   AA..         MOV     R2,?V0 + 0
   \   000033   AB..         MOV     R3,?V0 + 1
   \   000035   12....       LCALL   ??osal_msg_deallocate?relay
    358          
    359                // Next - if one is available
    360                MSGpkt = (afIncomingMSGPacket_t *)osal_msg_receive( SampleApp_TaskID );
   \   000038                ; Setup parameters for call to function osal_msg_receive
   \                     ??SampleApp_ProcessEvent_1:
   \   000038   90....       MOV     DPTR,#SampleApp_TaskID
   \   00003B   E0           MOVX    A,@DPTR
   \   00003C   F9           MOV     R1,A
   \   00003D   12....       LCALL   ??osal_msg_receive?relay
   \   000040   8A..         MOV     ?V0 + 0,R2
   \   000042   8B..         MOV     ?V0 + 1,R3
   \   000044   E5..         MOV     A,?V0 + 0
   \   000046   45..         ORL     A,?V0 + 1
   \   000048   603E         JZ      ??SampleApp_ProcessEvent_5
   \   00004A   85..82       MOV     DPL,?V0 + 0
   \   00004D   85..83       MOV     DPH,?V0 + 1
   \   000050   E0           MOVX    A,@DPTR
   \   000051   14           DEC     A
   \   000052   600E         JZ      ??SampleApp_ProcessEvent_6
   \   000054   24E7         ADD     A,#-0x19
   \   000056   6027         JZ      ??SampleApp_ProcessEvent_7
   \   000058   245A         ADD     A,#0x5a
   \   00005A   600F         JZ      ??SampleApp_ProcessEvent_8
   \   00005C   24EF         ADD     A,#-0x11
   \   00005E   60B2         JZ      ??SampleApp_ProcessEvent_2
   \   000060   80CF         SJMP    ??SampleApp_ProcessEvent_4
   \                     ??SampleApp_ProcessEvent_6:
   \   000062                ; Setup parameters for call to function SampleApp_SerialCMD
   \   000062   AA..         MOV     R2,?V0 + 0
   \   000064   AB..         MOV     R3,?V0 + 1
   \   000066   12....       LCALL   ??SampleApp_SerialCMD?relay
   \   000069   80C6         SJMP    ??SampleApp_ProcessEvent_4
   \                     ??SampleApp_ProcessEvent_8:
   \   00006B                ; Setup parameters for call to function SampleApp_HandleKeys
   \   00006B   A3           INC     DPTR
   \   00006C   A3           INC     DPTR
   \   00006D   A3           INC     DPTR
   \   00006E   E0           MOVX    A,@DPTR
   \   00006F   FA           MOV     R2,A
   \   000070   85..82       MOV     DPL,?V0 + 0
   \   000073   85..83       MOV     DPH,?V0 + 1
   \   000076   A3           INC     DPTR
   \   000077   A3           INC     DPTR
   \   000078   E0           MOVX    A,@DPTR
   \   000079   F9           MOV     R1,A
   \   00007A   12....       LCALL   ??SampleApp_HandleKeys?relay
   \   00007D   80B2         SJMP    ??SampleApp_ProcessEvent_4
   \                     ??SampleApp_ProcessEvent_7:
   \   00007F                ; Setup parameters for call to function SampleApp_MessageMSGCB
   \   00007F   AA..         MOV     R2,?V0 + 0
   \   000081   AB..         MOV     R3,?V0 + 1
   \   000083   12....       LCALL   ??SampleApp_MessageMSGCB?relay
   \   000086   80A9         SJMP    ??SampleApp_ProcessEvent_4
    361              }
    362          
    363              // return unprocessed events
    364              return (events ^ SYS_EVENT_MSG);
   \                     ??SampleApp_ProcessEvent_5:
   \   000088   EE           MOV     A,R6
   \   000089   FA           MOV     R2,A
   \   00008A   EF           MOV     A,R7
   \   00008B   6480         XRL     A,#0x80
   \                     ??SampleApp_ProcessEvent_9:
   \   00008D   FB           MOV     R3,A
   \   00008E   8034         SJMP    ??SampleApp_ProcessEvent_10
    365            }
    366          
    367            // Send a message out - This event is generated by a timer
    368            //  (setup in SampleApp_Init()).
    369            if ( events & SAMPLEAPP_SEND_PERIODIC_MSG_EVT )
   \                     ??SampleApp_ProcessEvent_0:
   \   000090   EE           MOV     A,R6
   \   000091   A2E0         MOV     C,0xE0 /* A   */.0
   \   000093   502B         JNC     ??SampleApp_ProcessEvent_11
    370            {
    371              PrintSnesorData(SENSORTYPE1);                                                 //enddevice send its data out by uart
   \   000095                ; Setup parameters for call to function PrintSnesorData
   \   000095   7901         MOV     R1,#0x1
   \   000097   12....       LCALL   ??PrintSnesorData?relay
    372              PrintSnesorData(SENSORTYPE2); 
   \   00009A                ; Setup parameters for call to function PrintSnesorData
   \   00009A   7906         MOV     R1,#0x6
   \   00009C   12....       LCALL   ??PrintSnesorData?relay
    373              //PrintSnesorData(SENSORTYPE3); 
    374              //PrintSnesorData(SENSORTYPE4);
    375              // Send the periodic message
    376              //SampleApp_SendPeriodicMessage();
    377          
    378              // Send the PointToPoin message
    379              Sample_SendPointToPointMessage();
   \   00009F                ; Setup parameters for call to function Sample_SendPointToPointMessage
   \   00009F   12....       LCALL   ??Sample_SendPointToPointMessage?relay
    380          
    381              // Setup to send message again in normal period (+ a little jitter)
    382              osal_start_timerEx( SampleApp_TaskID, SAMPLEAPP_SEND_PERIODIC_MSG_EVT,
    383                  (SAMPLEAPP_SEND_PERIODIC_MSG_TIMEOUT + (osal_rand() & 0x00FF)) );
   \   0000A2                ; Setup parameters for call to function osal_rand
   \   0000A2   12....       LCALL   ??osal_rand?relay
   \   0000A5                ; Setup parameters for call to function osal_start_timerEx
   \   0000A5   EA           MOV     A,R2
   \   0000A6   24E8         ADD     A,#-0x18
   \   0000A8   FC           MOV     R4,A
   \   0000A9   E4           CLR     A
   \   0000AA   3403         ADDC    A,#0x3
   \   0000AC   FD           MOV     R5,A
   \   0000AD   7A01         MOV     R2,#0x1
   \   0000AF   7B00         MOV     R3,#0x0
   \   0000B1   90....       MOV     DPTR,#SampleApp_TaskID
   \   0000B4   E0           MOVX    A,@DPTR
   \   0000B5   F9           MOV     R1,A
   \   0000B6   12....       LCALL   ??osal_start_timerEx?relay
    384          
    385              // return unprocessed events
    386              return (events ^ SAMPLEAPP_SEND_PERIODIC_MSG_EVT);
   \   0000B9   EE           MOV     A,R6
   \   0000BA   6401         XRL     A,#0x1
   \   0000BC   FA           MOV     R2,A
   \   0000BD   EF           MOV     A,R7
   \   0000BE   80CD         SJMP    ??SampleApp_ProcessEvent_9
    387            }
    388          
    389            // Discard unknown events
    390            return 0;
   \                     ??SampleApp_ProcessEvent_11:
   \   0000C0   7A00         MOV     R2,#0x0
   \   0000C2   7B00         MOV     R3,#0x0
   \                     ??SampleApp_ProcessEvent_10:
   \   0000C4                REQUIRE ?Subroutine1
   \   0000C4                ; // Fall through to label ?Subroutine1
    391          }

   \                                 In  segment BANKED_CODE, align 1, keep-with-next
   \                     ?Subroutine1:
   \   000000   7F04         MOV     R7,#0x4
   \   000002   02....       LJMP    ?BANKED_LEAVE_XDATA
    392          
    393          /*********************************************************************
    394           * Event Generation Functions
    395           */
    396          /*********************************************************************
    397           * @fn      SampleApp_HandleKeys
    398           *
    399           * @brief   Handles all key events for this device.
    400           *
    401           * @param   shift - true if in shift/alt.
    402           * @param   keys - bit field for key events. Valid entries:
    403           *                 HAL_KEY_SW_2
    404           *                 HAL_KEY_SW_1
    405           *
    406           * @return  none
    407           */

   \                                 In  segment BANKED_CODE, align 1, keep-with-next
    408          void SampleApp_HandleKeys( uint8 shift, uint8 keys )
   \                     SampleApp_HandleKeys:
    409          {
   \   000000   74F6         MOV     A,#-0xa
   \   000002   12....       LCALL   ?BANKED_ENTER_XDATA
   \   000005                ; Saved register size: 10
   \   000005                ; Auto size: 0
   \   000005   EA           MOV     A,R2
   \   000006   FE           MOV     R6,A
    410            (void)shift;  // Intentionally unreferenced parameter
    411            
    412            if ( keys & HAL_KEY_SW_1 )
   \   000007   A2E0         MOV     C,0xE0 /* A   */.0
   \   000009   5007         JNC     ??SampleApp_HandleKeys_0
    413            {
    414              /* This key sends the Flash Command is sent to Group 1.
    415               * This device will not receive the Flash Command from this
    416               * device (even if it belongs to group 1).
    417               */
    418              SampleApp_SendFlashMessage( SAMPLEAPP_FLASH_DURATION );
   \   00000B                ; Setup parameters for call to function SampleApp_SendFlashMessage
   \   00000B   7AE8         MOV     R2,#-0x18
   \   00000D   7B03         MOV     R3,#0x3
   \   00000F   12....       LCALL   ??SampleApp_SendFlashMessage?relay
    419            }
    420          
    421            if ( keys & HAL_KEY_SW_2 )
   \                     ??SampleApp_HandleKeys_0:
   \   000012   EE           MOV     A,R6
   \   000013   A2E1         MOV     C,0xE0 /* A   */.1
   \   000015   5024         JNC     ??SampleApp_HandleKeys_1
    422            {
    423              /* The Flashr Command is sent to Group 1.
    424               * This key toggles this device in and out of group 1.
    425               * If this device doesn't belong to group 1, this application
    426               * will not receive the Flash command sent to group 1.
    427               */
    428              aps_Group_t *grp;
    429              grp = aps_FindGroup( SAMPLEAPP_ENDPOINT, SAMPLEAPP_FLASH_GROUP );
    430              if ( grp )
   \   000017                ; Setup parameters for call to function aps_FindGroup
   \   000017   7A01         MOV     R2,#0x1
   \   000019   7B00         MOV     R3,#0x0
   \   00001B   7914         MOV     R1,#0x14
   \   00001D   12....       LCALL   ??aps_FindGroup?relay
   \   000020   8B..         MOV     ?V0 + 1,R3
   \   000022   EA           MOV     A,R2
   \   000023   45..         ORL     A,?V0 + 1
   \   000025   600B         JZ      ??SampleApp_HandleKeys_2
    431              {
    432                // Remove from the group
    433                aps_RemoveGroup( SAMPLEAPP_ENDPOINT, SAMPLEAPP_FLASH_GROUP );
   \   000027                ; Setup parameters for call to function aps_RemoveGroup
   \   000027   7A01         MOV     R2,#0x1
   \   000029   7B00         MOV     R3,#0x0
   \   00002B   7914         MOV     R1,#0x14
   \   00002D   12....       LCALL   ??aps_RemoveGroup?relay
   \   000030   8009         SJMP    ??SampleApp_HandleKeys_1
    434              }
    435              else
    436              {
    437                // Add to the flash group
    438                aps_AddGroup( SAMPLEAPP_ENDPOINT, &SampleApp_Group );
   \                     ??SampleApp_HandleKeys_2:
   \   000032                ; Setup parameters for call to function aps_AddGroup
   \   000032   7A..         MOV     R2,#SampleApp_Group & 0xff
   \   000034   7B..         MOV     R3,#(SampleApp_Group >> 8) & 0xff
   \   000036   7914         MOV     R1,#0x14
   \   000038   12....       LCALL   ??aps_AddGroup?relay
    439              }
    440            }
    441          }
   \                     ??SampleApp_HandleKeys_1:
   \   00003B   02....       LJMP    ??Subroutine18_0 & 0xFFFF

   \                                 In  segment BANKED_CODE, align 1, keep-with-next
   \                     ??Subroutine18_0:
   \   000000   7F02         MOV     R7,#0x2
   \   000002   02....       LJMP    ?BANKED_LEAVE_XDATA
    442          
    443          /*********************************************************************
    444           * LOCAL FUNCTIONS
    445           */
    446          
    447          /*********************************************************************
    448           * @fn      SampleApp_MessageMSGCB
    449           *
    450           * @brief   Data message processor callback.  This function processes
    451           *          any incoming data - probably from other devices.  So, based
    452           *          on cluster ID, perform the intended action.
    453           *
    454           * @param   none
    455           *
    456           * @return  none
    457           */
    458          

   \                                 In  segment BANKED_CODE, align 1, keep-with-next
    459           void LightMotionAct(uint8 motion)
   \                     LightMotionAct:
    460           {
   \   000000   74F7         MOV     A,#-0x9
   \   000002   12....       LCALL   ?BANKED_ENTER_XDATA
   \   000005                ; Saved register size: 9
   \   000005                ; Auto size: 0
   \   000005   E9           MOV     A,R1
   \   000006   FE           MOV     R6,A
    461             if(motion==OPEN)
   \   000007   7401         MOV     A,#0x1
   \   000009   6E           XRL     A,R6
   \   00000A   7004         JNZ     ??LightMotionAct_0
    462             {
    463              HalLedSet (HAL_LED_1, HAL_LED_MODE_OFF);
   \   00000C                ; Setup parameters for call to function HalLedSet
   \   00000C   7A00         MOV     R2,#0x0
   \   00000E   8002         SJMP    ??LightMotionAct_1
    464            } 
    465            else 
    466            {
    467              HalLedSet (HAL_LED_1, HAL_LED_MODE_ON);
   \                     ??LightMotionAct_0:
   \   000010                ; Setup parameters for call to function HalLedSet
   \   000010   7A01         MOV     R2,#0x1
   \                     ??LightMotionAct_1:
   \   000012   7901         MOV     R1,#0x1
    468            }
   \   000014                REQUIRE ?Subroutine3
   \   000014                ; // Fall through to label ?Subroutine3
    469          }

   \                                 In  segment BANKED_CODE, align 1, keep-with-next
   \                     ?Subroutine3:
   \   000000   12....       LCALL   ??HalLedSet?relay
   \   000003                REQUIRE ??Subroutine14_0
   \   000003                ; // Fall through to label ??Subroutine14_0

   \                                 In  segment BANKED_CODE, align 1, keep-with-next
   \                     ??Subroutine14_0:
   \   000000   7F01         MOV     R7,#0x1
   \   000002   02....       LJMP    ?BANKED_LEAVE_XDATA
    470          

   \                                 In  segment BANKED_CODE, align 1, keep-with-next
    471          void MotorMotionAct(uint8 motion)
   \                     MotorMotionAct:
    472          {
   \   000000   74F7         MOV     A,#-0x9
   \   000002   12....       LCALL   ?BANKED_ENTER_XDATA
   \   000005                ; Saved register size: 9
   \   000005                ; Auto size: 0
   \   000005   E9           MOV     A,R1
   \   000006   FE           MOV     R6,A
    473            if(motion==OPEN)
   \   000007   7401         MOV     A,#0x1
   \   000009   6E           XRL     A,R6
   \   00000A   7004         JNZ     ??MotorMotionAct_0
    474            { 
    475              HalLedSet (HAL_LED_2, HAL_LED_MODE_OFF);
   \   00000C                ; Setup parameters for call to function HalLedSet
   \   00000C   7A00         MOV     R2,#0x0
   \   00000E   8002         SJMP    ??MotorMotionAct_1
    476            }
    477            else 
    478            {
    479              HalLedSet (HAL_LED_2, HAL_LED_MODE_ON);
   \                     ??MotorMotionAct_0:
   \   000010                ; Setup parameters for call to function HalLedSet
   \   000010   7A01         MOV     R2,#0x1
   \                     ??MotorMotionAct_1:
   \   000012   7902         MOV     R1,#0x2
    480            } 
   \   000014   80..         SJMP    ?Subroutine3
    481          }

   \                                 In  segment BANKED_CODE, align 1, keep-with-next
    482          void SampleApp_MessageMSGCB( afIncomingMSGPacket_t *pkt )
   \                     SampleApp_MessageMSGCB:
    483          {
   \   000000   74F6         MOV     A,#-0xa
   \   000002   12....       LCALL   ?BANKED_ENTER_XDATA
   \   000005                ; Saved register size: 10
   \   000005                ; Auto size: 22
   \   000005   74EA         MOV     A,#-0x16
   \   000007   12....       LCALL   ?ALLOC_XSTACK8
   \   00000A   EA           MOV     A,R2
   \   00000B   FE           MOV     R6,A
   \   00000C   EB           MOV     A,R3
   \   00000D   FF           MOV     R7,A
    484            uint16 value;
    485            char DataGetFromEndEdv[20];
    486            int i = 0;
    487          
    488            switch ( pkt->clusterId )
   \   00000E   8E82         MOV     DPL,R6
   \   000010   8F83         MOV     DPH,R7
   \   000012   A3           INC     DPTR
   \   000013   A3           INC     DPTR
   \   000014   12....       LCALL   ?Subroutine13 & 0xFFFF
   \                     ??CrossCallReturnLabel_13:
   \   000017   78..         MOV     R0,#?V0 + 0
   \   000019   12....       LCALL   ?US_SWITCH_DENSE
   \                     `?<Jumptable for SampleApp_MessageMSGCB>_0`:
   \   00001C   0300         DW        3
   \   00001E   01           DB        1
   \   00001F   ....         DW        ??SampleApp_MessageMSGCB_0
   \   000021   ....         DW        ??SampleApp_MessageMSGCB_1
   \   000023   ....         DW        ??SampleApp_MessageMSGCB_2
   \                     ??SampleApp_MessageMSGCB_1:
   \   000025   12....       LCALL   ?Subroutine7 & 0xFFFF
   \                     ??CrossCallReturnLabel_6:
   \   000028   F9           MOV     R1,A
   \   000029   E8           MOV     A,R0
   \   00002A   FA           MOV     R2,A
   \   00002B   E9           MOV     A,R1
   \   00002C   FB           MOV     R3,A
   \   00002D   8A82         MOV     DPL,R2
   \   00002F   8B83         MOV     DPH,R3
   \   000031   A3           INC     DPTR
   \   000032   A3           INC     DPTR
   \   000033   A3           INC     DPTR
   \   000034   A3           INC     DPTR
   \   000035   A3           INC     DPTR
   \   000036   A3           INC     DPTR
   \   000037   E0           MOVX    A,@DPTR
   \   000038   F9           MOV     R1,A
    489            {
    490              uint8 GetDeviceId,GetSensorId,GetMotion;
    491               case SAMPLEAPP_COM_CLUSTERID:            // 07 EF FE 01 02 00 FE   
    492                    GetDeviceId = pkt->cmd.Data[4];
    493                    GetSensorId = pkt->cmd.Data[5];
    494                    GetMotion = pkt->cmd.Data[6];
    495                    
    496                    if(GetDeviceId == deviceid)                                          
   \   000039   8A82         MOV     DPL,R2
   \   00003B   8B83         MOV     DPH,R3
   \   00003D   A3           INC     DPTR
   \   00003E   A3           INC     DPTR
   \   00003F   A3           INC     DPTR
   \   000040   A3           INC     DPTR
   \   000041   E0           MOVX    A,@DPTR
   \   000042   F8           MOV     R0,A
   \   000043   90....       MOV     DPTR,#deviceid
   \   000046   E0           MOVX    A,@DPTR
   \   000047   68           XRL     A,R0
   \   000048   6003         JZ      $+5
   \   00004A   02....       LJMP    ??SampleApp_MessageMSGCB_0 & 0xFFFF
    497                    {
    498                        switch(GetSensorId)
   \   00004D   12....       LCALL   ?Subroutine7 & 0xFFFF
   \                     ??CrossCallReturnLabel_7:
   \   000050   F583         MOV     DPH,A
   \   000052   8882         MOV     DPL,R0
   \   000054   A3           INC     DPTR
   \   000055   A3           INC     DPTR
   \   000056   A3           INC     DPTR
   \   000057   A3           INC     DPTR
   \   000058   A3           INC     DPTR
   \   000059   E0           MOVX    A,@DPTR
   \   00005A   24FE         ADD     A,#-0x2
   \   00005C   6007         JZ      ??SampleApp_MessageMSGCB_3
   \   00005E   24FE         ADD     A,#-0x2
   \   000060   6009         JZ      ??SampleApp_MessageMSGCB_4
   \   000062   02....       LJMP    ??SampleApp_MessageMSGCB_0 & 0xFFFF
    499                        {
    500                          case LIGHTED://2
    501                          LightMotionAct(GetMotion);
   \                     ??SampleApp_MessageMSGCB_3:
   \   000065                ; Setup parameters for call to function LightMotionAct
   \   000065   12....       LCALL   ??LightMotionAct?relay
    502                          break;
   \   000068   02....       LJMP    ??SampleApp_MessageMSGCB_0 & 0xFFFF
    503                          case MOTOR://4
    504                          MotorMotionAct(GetMotion);
   \                     ??SampleApp_MessageMSGCB_4:
   \   00006B                ; Setup parameters for call to function MotorMotionAct
   \   00006B   12....       LCALL   ??MotorMotionAct?relay
    505                          break;
   \   00006E   02....       LJMP    ??SampleApp_MessageMSGCB_0 & 0xFFFF
    506                        }
    507                    }
    508                    break;
    509           
    510                case SAMPLEAPP_POINT_TO_POINT_CLUSTERID:                                  
    511                    memset(DataGetFromEndEdv,0,20);
   \                     ??SampleApp_MessageMSGCB_2:
   \   000071                ; Setup parameters for call to function memset
   \   000071   75..14       MOV     ?V0 + 0,#0x14
   \   000074   75..00       MOV     ?V0 + 1,#0x0
   \   000077   78..         MOV     R0,#?V0 + 0
   \   000079   12....       LCALL   ?PUSH_XSTACK_I_TWO
   \   00007C   7C00         MOV     R4,#0x0
   \   00007E   7D00         MOV     R5,#0x0
   \   000080   7404         MOV     A,#0x4
   \   000082   12....       LCALL   ?XSTACK_DISP0_8
   \   000085   AA82         MOV     R2,DPL
   \   000087   AB83         MOV     R3,DPH
   \   000089   12....       LCALL   ??memset?relay
   \   00008C   7402         MOV     A,#0x2
   \   00008E   12....       LCALL   ?DEALLOC_XSTACK8
    512          
    513                    for(i = 0;i <20 ;i++)
   \   000091   7800         MOV     R0,#0x0
   \   000093   7900         MOV     R1,#0x0
    514                    {
    515                      DataGetFromEndEdv[i] = pkt->cmd.Data[i];
   \                     ??SampleApp_MessageMSGCB_5:
   \   000095   EE           MOV     A,R6
   \   000096   2422         ADD     A,#0x22
   \   000098   F582         MOV     DPL,A
   \   00009A   EF           MOV     A,R7
   \   00009B   12....       LCALL   ??Subroutine21_0 & 0xFFFF
    516                    }
   \                     ??CrossCallReturnLabel_22:
   \   00009E   E0           MOVX    A,@DPTR
   \   00009F   28           ADD     A,R0
   \   0000A0   FA           MOV     R2,A
   \   0000A1   A3           INC     DPTR
   \   0000A2   E0           MOVX    A,@DPTR
   \   0000A3   39           ADDC    A,R1
   \   0000A4   8A82         MOV     DPL,R2
   \   0000A6   F583         MOV     DPH,A
   \   0000A8   E0           MOVX    A,@DPTR
   \   0000A9   C0E0         PUSH    A
   \   0000AB   7402         MOV     A,#0x2
   \   0000AD   12....       LCALL   ?XSTACK_DISP0_8
   \   0000B0   E582         MOV     A,DPL
   \   0000B2   28           ADD     A,R0
   \   0000B3   F582         MOV     DPL,A
   \   0000B5   E583         MOV     A,DPH
   \   0000B7   39           ADDC    A,R1
   \   0000B8   F583         MOV     DPH,A
   \   0000BA   D0E0         POP     A
   \   0000BC   F0           MOVX    @DPTR,A
   \   0000BD   12....       LCALL   ?Subroutine11 & 0xFFFF
   \                     ??CrossCallReturnLabel_10:
   \   0000C0   9414         SUBB    A,#0x14
   \   0000C2   12....       LCALL   ?Subroutine9 & 0xFFFF
   \                     ??CrossCallReturnLabel_16:
   \   0000C5   40CE         JC      ??SampleApp_MessageMSGCB_5
    517                  
    518                    value=pkt->srcAddr.addr.shortAddr;
   \   0000C7   8E82         MOV     DPL,R6
   \   0000C9   8F83         MOV     DPH,R7
   \   0000CB   A3           INC     DPTR
   \   0000CC   A3           INC     DPTR
   \   0000CD   A3           INC     DPTR
   \   0000CE   A3           INC     DPTR
   \   0000CF   A3           INC     DPTR
   \   0000D0   A3           INC     DPTR
   \   0000D1   E0           MOVX    A,@DPTR
   \   0000D2   F8           MOV     R0,A
   \   0000D3   A3           INC     DPTR
   \   0000D4   E0           MOVX    A,@DPTR
   \   0000D5   F9           MOV     R1,A
   \   0000D6   85..82       MOV     DPL,?XSP + 0
   \   0000D9   85..83       MOV     DPH,?XSP + 1
   \   0000DC   E8           MOV     A,R0
   \   0000DD   F0           MOVX    @DPTR,A
   \   0000DE   A3           INC     DPTR
   \   0000DF   E9           MOV     A,R1
   \   0000E0   F0           MOVX    @DPTR,A
    519                    DataGetFromEndEdv[17] = BYTE1(value);
   \   0000E1   7401         MOV     A,#0x1
   \   0000E3   12....       LCALL   ?XSTACK_DISP0_8
   \   0000E6   E0           MOVX    A,@DPTR
   \   0000E7   C0E0         PUSH    A
   \   0000E9   7413         MOV     A,#0x13
   \   0000EB   12....       LCALL   ?XSTACK_DISP0_8
   \   0000EE   D0E0         POP     A
   \   0000F0   F0           MOVX    @DPTR,A
    520                    DataGetFromEndEdv[18] = BYTE0(value);
   \   0000F1   85..82       MOV     DPL,?XSP + 0
   \   0000F4   85..83       MOV     DPH,?XSP + 1
   \   0000F7   E0           MOVX    A,@DPTR
   \   0000F8   C0E0         PUSH    A
   \   0000FA   7414         MOV     A,#0x14
   \   0000FC   12....       LCALL   ?XSTACK_DISP0_8
   \   0000FF   D0E0         POP     A
   \   000101   F0           MOVX    @DPTR,A
    521          
    522                    HalUARTWrite(0,DataGetFromEndEdv, 20);
                                          ^
Warning[Pe167]: argument of type "char *" is incompatible with parameter of
          type "unsigned char *"
   \   000102                ; Setup parameters for call to function HalUARTWrite
   \   000102   7C14         MOV     R4,#0x14
   \   000104   7D00         MOV     R5,#0x0
   \   000106   7402         MOV     A,#0x2
   \   000108   12....       LCALL   ?XSTACK_DISP0_8
   \   00010B   AA82         MOV     R2,DPL
   \   00010D   AB83         MOV     R3,DPH
   \   00010F   7900         MOV     R1,#0x0
   \   000111   12....       LCALL   ??HalUARTWrite?relay
    523          
    524                break;
    525                
    526              /*case SAMPLEAPP_PERIODIC_CLUSTERID:
    527                
    528                break;
    529          
    530              case SAMPLEAPP_FLASH_CLUSTERID:
    531                flashTime = BUILD_UINT16(pkt->cmd.Data[1], pkt->cmd.Data[2] );
    532                HalLedBlink( HAL_LED_4, 4, 50, (flashTime / 4) );
    533                break;*/
    534            }
    535          }
   \                     ??SampleApp_MessageMSGCB_0:
   \   000114   7416         MOV     A,#0x16
   \   000116   02....       LJMP    ?Subroutine2 & 0xFFFF

   \                                 In  segment BANKED_CODE, align 1, keep-with-next
   \                     ?Subroutine13:
   \   000000   A3           INC     DPTR
   \   000001   A3           INC     DPTR
   \   000002                REQUIRE ??Subroutine15_0
   \   000002                ; // Fall through to label ??Subroutine15_0

   \                                 In  segment BANKED_CODE, align 1, keep-with-next
   \                     ??Subroutine15_0:
   \   000000   E0           MOVX    A,@DPTR
   \   000001   F5..         MOV     ?V0 + 0,A
   \   000003   A3           INC     DPTR
   \   000004   E0           MOVX    A,@DPTR
   \   000005   F5..         MOV     ?V0 + 1,A
   \   000007   22           RET

   \                                 In  segment BANKED_CODE, align 1, keep-with-next
   \                     ?Subroutine9:
   \   000000   E9           MOV     A,R1
   \   000001                REQUIRE ??Subroutine16_0
   \   000001                ; // Fall through to label ??Subroutine16_0

   \                                 In  segment BANKED_CODE, align 1, keep-with-next
   \                     ??Subroutine16_0:
   \   000000   9400         SUBB    A,#0x0
   \   000002   A2D2         MOV     C,0xD0 /* PSW */.2
   \   000004   65D0         XRL     A,PSW
   \   000006   33           RLC     A
   \   000007   22           RET

   \                                 In  segment BANKED_CODE, align 1, keep-with-next
   \                     ?Subroutine7:
   \   000000   EE           MOV     A,R6
   \   000001   2422         ADD     A,#0x22
   \   000003   F582         MOV     DPL,A
   \   000005   EF           MOV     A,R7
   \   000006   3400         ADDC    A,#0x0
   \   000008   F583         MOV     DPH,A
   \   00000A   E0           MOVX    A,@DPTR
   \   00000B   F8           MOV     R0,A
   \   00000C   A3           INC     DPTR
   \   00000D   E0           MOVX    A,@DPTR
   \   00000E   22           RET

   \                                 In  segment BANKED_CODE, align 1, keep-with-next
   \                     ?Subroutine2:
   \   000000   12....       LCALL   ?DEALLOC_XSTACK8
   \   000003                REQUIRE ??Subroutine18_0
   \   000003                ; // Fall through to label ??Subroutine18_0

   \                                 In  segment BANKED_CODE, align 1, keep-with-next
   \                     ?Subroutine11:
   \   000000   E8           MOV     A,R0
   \   000001   2401         ADD     A,#0x1
   \   000003   08           INC     R0
   \   000004   E9           MOV     A,R1
   \   000005   3400         ADDC    A,#0x0
   \   000007   F9           MOV     R1,A
   \   000008   C3           CLR     C
   \   000009   E8           MOV     A,R0
   \   00000A   22           RET

   \                                 In  segment BANKED_CODE, align 1, keep-with-next
   \                     ??Subroutine21_0:
   \   000000   3400         ADDC    A,#0x0
   \   000002   F583         MOV     DPH,A
   \   000004   22           RET
    536          
    537          /*********************************************************************
    538           * @fn      SampleApp_SendPeriodicMessage
    539           *
    540           * @brief   Send the periodic message.
    541           *
    542           * @param   none
    543           *
    544           * @return  none
    545           */

   \                                 In  segment BANKED_CODE, align 1, keep-with-next
    546          void SampleApp_SendPeriodicMessage( void )
   \                     SampleApp_SendPeriodicMessage:
    547          {
   \   000000   74F6         MOV     A,#-0xa
   \   000002   12....       LCALL   ?BANKED_ENTER_XDATA
   \   000005                ; Saved register size: 10
   \   000005                ; Auto size: 0
    548            if ( AF_DataRequest( &SampleApp_Periodic_DstAddr, &SampleApp_epDesc,
    549                                 SAMPLEAPP_PERIODIC_CLUSTERID,
    550                                 1,
    551                                 (uint8*)&SampleAppPeriodicCounter,
    552                                 &SampleApp_TransID,
    553                                 AF_DISCV_ROUTE,
    554                                 AF_DEFAULT_RADIUS ) == afStatus_SUCCESS )
   \   000005                ; Setup parameters for call to function AF_DataRequest
   \   000005   75..1E       MOV     ?V0 + 0,#0x1e
   \   000008   78..         MOV     R0,#?V0 + 0
   \   00000A   12....       LCALL   ?PUSH_XSTACK_I_ONE
   \   00000D   75....       MOV     ?V0 + 0,#SampleApp_TransID & 0xff
   \   000010   75....       MOV     ?V0 + 1,#(SampleApp_TransID >> 8) & 0xff
   \   000013   78..         MOV     R0,#?V0 + 0
   \   000015   12....       LCALL   ?PUSH_XSTACK_I_TWO
   \   000018   75....       MOV     ?V0 + 0,#SampleAppPeriodicCounter & 0xff
   \   00001B   75....       MOV     ?V0 + 1,#(SampleAppPeriodicCounter >> 8) & 0xff
   \   00001E   78..         MOV     R0,#?V0 + 0
   \   000020   12....       LCALL   ?PUSH_XSTACK_I_TWO
   \   000023   75..01       MOV     ?V0 + 0,#0x1
   \   000026   75..00       MOV     ?V0 + 1,#0x0
   \   000029   78..         MOV     R0,#?V0 + 0
   \   00002B   12....       LCALL   ?PUSH_XSTACK_I_TWO
   \   00002E   78..         MOV     R0,#?V0 + 0
   \   000030   12....       LCALL   ?PUSH_XSTACK_I_TWO
   \   000033   12....       LCALL   ?Subroutine12 & 0xFFFF
   \                     ??CrossCallReturnLabel_18:
   \   000036   02....       LJMP    ?Subroutine2 & 0xFFFF
    555            {
    556            }
    557            else
    558            {
    559              // Error occurred in request to send.
    560            }
    561          }

   \                                 In  segment BANKED_CODE, align 1, keep-with-next
   \                     ?Subroutine12:
   \   000000   7920         MOV     R1,#0x20
   \   000002   7C..         MOV     R4,#SampleApp_epDesc & 0xff
   \   000004   7D..         MOV     R5,#(SampleApp_epDesc >> 8) & 0xff
   \   000006   7A..         MOV     R2,#SampleApp_Periodic_DstAddr & 0xff
   \   000008   7B..         MOV     R3,#(SampleApp_Periodic_DstAddr >> 8) & 0xff
   \   00000A                REQUIRE ??Subroutine17_0
   \   00000A                ; // Fall through to label ??Subroutine17_0

   \                                 In  segment BANKED_CODE, align 1, keep-with-next
   \                     ??Subroutine17_0:
   \   000000   12....       LCALL   ??AF_DataRequest?relay
   \   000003   7409         MOV     A,#0x9
   \   000005   22           RET
    562          
    563          /*********************************************************************
    564           * @fn      SampleApp_SendFlashMessage
    565           *
    566           * @brief   Send the flash message to group 1.
    567           *
    568           * @param   flashTime - in milliseconds
    569           *
    570           * @return  none
    571           */

   \                                 In  segment BANKED_CODE, align 1, keep-with-next
    572          void SampleApp_SendFlashMessage( uint16 flashTime )
   \                     SampleApp_SendFlashMessage:
    573          {
   \   000000   74F6         MOV     A,#-0xa
   \   000002   12....       LCALL   ?BANKED_ENTER_XDATA
   \   000005                ; Saved register size: 10
   \   000005                ; Auto size: 3
   \   000005   74FD         MOV     A,#-0x3
   \   000007   12....       LCALL   ?ALLOC_XSTACK8
    574            uint8 buffer[3];
    575            buffer[0] = (uint8)(SampleAppFlashCounter++);
   \   00000A   90....       MOV     DPTR,#SampleAppFlashCounter
   \   00000D   E0           MOVX    A,@DPTR
   \   00000E   85..82       MOV     DPL,?XSP + 0
   \   000011   85..83       MOV     DPH,?XSP + 1
   \   000014   F0           MOVX    @DPTR,A
   \   000015   90....       MOV     DPTR,#SampleAppFlashCounter
   \   000018   E0           MOVX    A,@DPTR
   \   000019   04           INC     A
   \   00001A   F0           MOVX    @DPTR,A
    576            buffer[1] = LO_UINT16( flashTime );
   \   00001B   7401         MOV     A,#0x1
   \   00001D   12....       LCALL   ?XSTACK_DISP0_8
   \   000020   EA           MOV     A,R2
   \   000021   F0           MOVX    @DPTR,A
    577            buffer[2] = HI_UINT16( flashTime );
   \   000022   7402         MOV     A,#0x2
   \   000024   12....       LCALL   ?XSTACK_DISP0_8
   \   000027   EB           MOV     A,R3
   \   000028   F0           MOVX    @DPTR,A
    578          
    579            if ( AF_DataRequest( &SampleApp_Flash_DstAddr, &SampleApp_epDesc,
    580                                 SAMPLEAPP_FLASH_CLUSTERID,
    581                                 3,
    582                                 buffer,
    583                                 &SampleApp_TransID,
    584                                 AF_DISCV_ROUTE,
    585                                 AF_DEFAULT_RADIUS ) == afStatus_SUCCESS )
   \   000029                ; Setup parameters for call to function AF_DataRequest
   \   000029   75..1E       MOV     ?V0 + 0,#0x1e
   \   00002C   78..         MOV     R0,#?V0 + 0
   \   00002E   12....       LCALL   ?PUSH_XSTACK_I_ONE
   \   000031   75....       MOV     ?V0 + 0,#SampleApp_TransID & 0xff
   \   000034   75....       MOV     ?V0 + 1,#(SampleApp_TransID >> 8) & 0xff
   \   000037   78..         MOV     R0,#?V0 + 0
   \   000039   12....       LCALL   ?PUSH_XSTACK_I_TWO
   \   00003C   7403         MOV     A,#0x3
   \   00003E   12....       LCALL   ?XSTACK_DISP0_8
   \   000041   8582..       MOV     ?V0 + 0,DPL
   \   000044   8583..       MOV     ?V0 + 1,DPH
   \   000047   78..         MOV     R0,#?V0 + 0
   \   000049   12....       LCALL   ?PUSH_XSTACK_I_TWO
   \   00004C   75..03       MOV     ?V0 + 0,#0x3
   \   00004F   75..00       MOV     ?V0 + 1,#0x0
   \   000052   78..         MOV     R0,#?V0 + 0
   \   000054   12....       LCALL   ?PUSH_XSTACK_I_TWO
   \   000057   75..02       MOV     ?V0 + 0,#0x2
   \   00005A   78..         MOV     R0,#?V0 + 0
   \   00005C   12....       LCALL   ?PUSH_XSTACK_I_TWO
   \   00005F   7920         MOV     R1,#0x20
   \   000061   7C..         MOV     R4,#SampleApp_epDesc & 0xff
   \   000063   7D..         MOV     R5,#(SampleApp_epDesc >> 8) & 0xff
   \   000065   7A..         MOV     R2,#SampleApp_Flash_DstAddr & 0xff
   \   000067   7B..         MOV     R3,#(SampleApp_Flash_DstAddr >> 8) & 0xff
   \   000069   12....       LCALL   ??Subroutine17_0 & 0xFFFF
   \                     ??CrossCallReturnLabel_20:
   \   00006C   12....       LCALL   ?DEALLOC_XSTACK8
    586            {
    587            }
    588            else
    589            {
    590              // Error occurred in request to send.
    591            }
    592          }
   \   00006F   7403         MOV     A,#0x3
   \   000071                REQUIRE ?Subroutine2
   \   000071                ; // Fall through to label ?Subroutine2
    593          
    594          /*********************************************************************
    595          *********************************************************************/

   \                                 In  segment BANKED_CODE, align 1, keep-with-next
    596          void SampleApp_SerialCMD(mtOSALSerialData_t *cmdMsg)
   \                     SampleApp_SerialCMD:
    597          {
   \   000000   74F4         MOV     A,#-0xc
   \   000002   12....       LCALL   ?BANKED_ENTER_XDATA
   \   000005                ; Saved register size: 12
   \   000005                ; Auto size: 0
    598            uint8 len,*str=NULL;     
    599            str=cmdMsg->msg;         
   \   000005   8A82         MOV     DPL,R2
   \   000007   8B83         MOV     DPH,R3
   \   000009   12....       LCALL   ?Subroutine13 & 0xFFFF
    600            len=*str;                
    601          
    602            if ( AF_DataRequest( &SampleApp_Periodic_DstAddr, &SampleApp_epDesc,    
    603          	                    SAMPLEAPP_COM_CLUSTERID,//录潞露篓氓禄赂枚
    604          	                    len+1,                  // 媒戮鲁陇露         
    605                                      str,                     //媒戮
    606          	                    &SampleApp_TransID, 
    607          	                    AF_DISCV_ROUTE,
    608          	                    AF_DEFAULT_RADIUS ) == afStatus_SUCCESS )
   \                     ??CrossCallReturnLabel_14:
   \   00000C                ; Setup parameters for call to function AF_DataRequest
   \   00000C   75..1E       MOV     ?V0 + 2,#0x1e
   \   00000F   78..         MOV     R0,#?V0 + 2
   \   000011   12....       LCALL   ?PUSH_XSTACK_I_ONE
   \   000014   75....       MOV     ?V0 + 2,#SampleApp_TransID & 0xff
   \   000017   75....       MOV     ?V0 + 3,#(SampleApp_TransID >> 8) & 0xff
   \   00001A   78..         MOV     R0,#?V0 + 2
   \   00001C   12....       LCALL   ?PUSH_XSTACK_I_TWO
   \   00001F   78..         MOV     R0,#?V0 + 0
   \   000021   12....       LCALL   ?PUSH_XSTACK_I_TWO
   \   000024   85..82       MOV     DPL,?V0 + 0
   \   000027   85..83       MOV     DPH,?V0 + 1
   \   00002A   E0           MOVX    A,@DPTR
   \   00002B   2401         ADD     A,#0x1
   \   00002D   F5..         MOV     ?V0 + 0,A
   \   00002F   E4           CLR     A
   \   000030   3400         ADDC    A,#0x0
   \   000032   F5..         MOV     ?V0 + 1,A
   \   000034   78..         MOV     R0,#?V0 + 0
   \   000036   12....       LCALL   ?PUSH_XSTACK_I_TWO
   \   000039   75..03       MOV     ?V0 + 0,#0x3
   \   00003C   75..00       MOV     ?V0 + 1,#0x0
   \   00003F   78..         MOV     R0,#?V0 + 0
   \   000041   12....       LCALL   ?PUSH_XSTACK_I_TWO
   \   000044   12....       LCALL   ?Subroutine12 & 0xFFFF
   \                     ??CrossCallReturnLabel_19:
   \   000047   12....       LCALL   ?DEALLOC_XSTACK8
    609          	                     {
    610          	                     }
    611            else
    612            {
    613            // Error occurred in request to send.
    614            } 
    615          }
   \   00004A   02....       LJMP    ?Subroutine1 & 0xFFFF
    616          

   \                                 In  segment BANKED_CODE, align 1, keep-with-next
    617          void Sample_SendPointToPointMessage(void)                                       
   \                     Sample_SendPointToPointMessage:
    618          {
   \   000000   74F5         MOV     A,#-0xb
   \   000002   12....       LCALL   ?BANKED_ENTER_XDATA
   \   000005                ; Saved register size: 11
   \   000005                ; Auto size: 44
   \   000005   74D4         MOV     A,#-0x2c
   \   000007   12....       LCALL   ?ALLOC_XSTACK8
    619            char SendDataToCoor[20];
    620            SER temp[4];
    621            int i = 0;
    622            int index = 0;
   \   00000A   7E00         MOV     R6,#0x0
   \   00000C   7F00         MOV     R7,#0x0
    623          
    624            memset(SendDataToCoor,0,20);
   \   00000E                ; Setup parameters for call to function memset
   \   00000E   75..14       MOV     ?V0 + 0,#0x14
   \   000011   8E..         MOV     ?V0 + 1,R6
   \   000013   78..         MOV     R0,#?V0 + 0
   \   000015   12....       LCALL   ?PUSH_XSTACK_I_TWO
   \   000018   7C00         MOV     R4,#0x0
   \   00001A   7D00         MOV     R5,#0x0
   \   00001C   741A         MOV     A,#0x1a
   \   00001E   12....       LCALL   ?XSTACK_DISP0_8
   \   000021   AA82         MOV     R2,DPL
   \   000023   AB83         MOV     R3,DPH
   \   000025   12....       LCALL   ??memset?relay
   \   000028   7402         MOV     A,#0x2
   \   00002A   12....       LCALL   ?DEALLOC_XSTACK8
    625          
    626            for(i = 0; i < 10 ; i++)
   \   00002D   7800         MOV     R0,#0x0
   \   00002F   7900         MOV     R1,#0x0
    627            {
    628              if(SerData[i].id > 0)
   \                     ??Sample_SendPointToPointMessage_0:
   \   000031   E8           MOV     A,R0
   \   000032   FA           MOV     R2,A
   \   000033   E9           MOV     A,R1
   \   000034   FB           MOV     R3,A
   \   000035   EA           MOV     A,R2
   \   000036   75F006       MOV     B,#0x6
   \   000039   A4           MUL     AB
   \   00003A   FA           MOV     R2,A
   \   00003B   ACF0         MOV     R4,B
   \   00003D   75F006       MOV     B,#0x6
   \   000040   EB           MOV     A,R3
   \   000041   A4           MUL     AB
   \   000042   2C           ADD     A,R4
   \   000043   FB           MOV     R3,A
   \   000044   74..         MOV     A,#SerData & 0xff
   \   000046   2A           ADD     A,R2
   \   000047   F582         MOV     DPL,A
   \   000049   74..         MOV     A,#(SerData >> 8) & 0xff
   \   00004B   3B           ADDC    A,R3
   \   00004C   F583         MOV     DPH,A
   \   00004E   C3           CLR     C
   \   00004F   E0           MOVX    A,@DPTR
   \   000050   9401         SUBB    A,#0x1
   \   000052   A3           INC     DPTR
   \   000053   E0           MOVX    A,@DPTR
   \   000054   12....       LCALL   ??Subroutine16_0 & 0xFFFF
   \                     ??CrossCallReturnLabel_15:
   \   000057   4070         JC      ??Sample_SendPointToPointMessage_1
    629              {
    630                temp[index].id = SerData[i].id;
   \   000059   EE           MOV     A,R6
   \   00005A   FA           MOV     R2,A
   \   00005B   EF           MOV     A,R7
   \   00005C   FB           MOV     R3,A
   \   00005D   EA           MOV     A,R2
   \   00005E   75F006       MOV     B,#0x6
   \   000061   A4           MUL     AB
   \   000062   FA           MOV     R2,A
   \   000063   ACF0         MOV     R4,B
   \   000065   75F006       MOV     B,#0x6
   \   000068   EB           MOV     A,R3
   \   000069   A4           MUL     AB
   \   00006A   2C           ADD     A,R4
   \   00006B   FB           MOV     R3,A
   \   00006C   85..82       MOV     DPL,?XSP + 0
   \   00006F   85..83       MOV     DPH,?XSP + 1
   \   000072   E582         MOV     A,DPL
   \   000074   2A           ADD     A,R2
   \   000075   FA           MOV     R2,A
   \   000076   E583         MOV     A,DPH
   \   000078   3B           ADDC    A,R3
   \   000079   FB           MOV     R3,A
   \   00007A   EA           MOV     A,R2
   \   00007B   FC           MOV     R4,A
   \   00007C   EB           MOV     A,R3
   \   00007D   FD           MOV     R5,A
   \   00007E   E8           MOV     A,R0
   \   00007F   FA           MOV     R2,A
   \   000080   E9           MOV     A,R1
   \   000081   FB           MOV     R3,A
   \   000082   EA           MOV     A,R2
   \   000083   75F006       MOV     B,#0x6
   \   000086   A4           MUL     AB
   \   000087   FA           MOV     R2,A
   \   000088   85F0..       MOV     ?V0 + 0,B
   \   00008B   75F006       MOV     B,#0x6
   \   00008E   EB           MOV     A,R3
   \   00008F   A4           MUL     AB
   \   000090   25..         ADD     A,?V0 + 0
   \   000092   FB           MOV     R3,A
   \   000093   74..         MOV     A,#SerData & 0xff
   \   000095   2A           ADD     A,R2
   \   000096   FA           MOV     R2,A
   \   000097   74..         MOV     A,#(SerData >> 8) & 0xff
   \   000099   3B           ADDC    A,R3
   \   00009A   FB           MOV     R3,A
   \   00009B   8A82         MOV     DPL,R2
   \   00009D   8B83         MOV     DPH,R3
   \   00009F   12....       LCALL   ?Subroutine8 & 0xFFFF
   \                     ??CrossCallReturnLabel_8:
   \   0000A2   12....       LCALL   ?Subroutine4 & 0xFFFF
    631                temp[index].data1 = SerData[i].data1;
   \                     ??CrossCallReturnLabel_0:
   \   0000A5   12....       LCALL   ?Subroutine8 & 0xFFFF
   \                     ??CrossCallReturnLabel_9:
   \   0000A8   A3           INC     DPTR
   \   0000A9   A3           INC     DPTR
   \   0000AA   12....       LCALL   ?Subroutine4 & 0xFFFF
    632                temp[index].data2 = SerData[i].data2;
   \                     ??CrossCallReturnLabel_1:
   \   0000AD   A3           INC     DPTR
   \   0000AE   A3           INC     DPTR
   \   0000AF   E0           MOVX    A,@DPTR
   \   0000B0   FA           MOV     R2,A
   \   0000B1   A3           INC     DPTR
   \   0000B2   E0           MOVX    A,@DPTR
   \   0000B3   FB           MOV     R3,A
   \   0000B4   8C82         MOV     DPL,R4
   \   0000B6   8D83         MOV     DPH,R5
   \   0000B8   A3           INC     DPTR
   \   0000B9   A3           INC     DPTR
   \   0000BA   A3           INC     DPTR
   \   0000BB   A3           INC     DPTR
   \   0000BC   EA           MOV     A,R2
   \   0000BD   F0           MOVX    @DPTR,A
   \   0000BE   A3           INC     DPTR
   \   0000BF   EB           MOV     A,R3
   \   0000C0   F0           MOVX    @DPTR,A
    633                index++;
   \   0000C1   EE           MOV     A,R6
   \   0000C2   2401         ADD     A,#0x1
   \   0000C4   0E           INC     R6
   \   0000C5   EF           MOV     A,R7
   \   0000C6   3400         ADDC    A,#0x0
   \   0000C8   FF           MOV     R7,A
    634              }
    635            }
   \                     ??Sample_SendPointToPointMessage_1:
   \   0000C9   12....       LCALL   ?Subroutine11 & 0xFFFF
   \                     ??CrossCallReturnLabel_11:
   \   0000CC   940A         SUBB    A,#0xa
   \   0000CE   12....       LCALL   ?Subroutine9 & 0xFFFF
   \                     ??CrossCallReturnLabel_17:
   \   0000D1   5003         JNC     $+5
   \   0000D3   02....       LJMP    ??Sample_SendPointToPointMessage_0 & 0xFFFF
    636          
    637            DataEncode(deviceid,0,temp,SendDataToCoor);
   \   0000D6                ; Setup parameters for call to function DataEncode
   \   0000D6   7418         MOV     A,#0x18
   \   0000D8   12....       LCALL   ?XSTACK_DISP0_8
   \   0000DB   8582..       MOV     ?V0 + 0,DPL
   \   0000DE   8583..       MOV     ?V0 + 1,DPH
   \   0000E1   78..         MOV     R0,#?V0 + 0
   \   0000E3   12....       LCALL   ?PUSH_XSTACK_I_TWO
   \   0000E6   7402         MOV     A,#0x2
   \   0000E8   12....       LCALL   ?XSTACK_DISP0_8
   \   0000EB   AC82         MOV     R4,DPL
   \   0000ED   AD83         MOV     R5,DPH
   \   0000EF   7A00         MOV     R2,#0x0
   \   0000F1   7B00         MOV     R3,#0x0
   \   0000F3   90....       MOV     DPTR,#deviceid
   \   0000F6   E0           MOVX    A,@DPTR
   \   0000F7   F9           MOV     R1,A
   \   0000F8   12....       LCALL   ??DataEncode?relay
   \   0000FB   7402         MOV     A,#0x2
   \   0000FD   12....       LCALL   ?DEALLOC_XSTACK8
    638          
    639            // if(SampleApp_NwkState==DEV_ROUTER)
    640            //   device=0x01;
    641            // else if(SampleApp_NwkState==DEV_END_DEVICE)
    642            //   device=0x02;
    643            // else 
    644            //   device=0x03;
    645            // SendData[5]=device;
    646          
    647            if ( AF_DataRequest( &Point_To_Point_DstAddr,
    648                                 &SampleApp_epDesc,
    649                                 SAMPLEAPP_POINT_TO_POINT_CLUSTERID,
    650                                 20,
    651                                 SendDataToCoor,
                                        ^
Warning[Pe167]: argument of type "char *" is incompatible with parameter of
          type "unsigned char *"
    652                                 &SampleApp_TransID,
    653                                 AF_DISCV_ROUTE,
    654                                 AF_DEFAULT_RADIUS ) == afStatus_SUCCESS )
   \   000100                ; Setup parameters for call to function AF_DataRequest
   \   000100   75..1E       MOV     ?V0 + 0,#0x1e
   \   000103   78..         MOV     R0,#?V0 + 0
   \   000105   12....       LCALL   ?PUSH_XSTACK_I_ONE
   \   000108   75....       MOV     ?V0 + 0,#SampleApp_TransID & 0xff
   \   00010B   75....       MOV     ?V0 + 1,#(SampleApp_TransID >> 8) & 0xff
   \   00010E   78..         MOV     R0,#?V0 + 0
   \   000110   12....       LCALL   ?PUSH_XSTACK_I_TWO
   \   000113   741B         MOV     A,#0x1b
   \   000115   12....       LCALL   ?XSTACK_DISP0_8
   \   000118   8582..       MOV     ?V0 + 0,DPL
   \   00011B   8583..       MOV     ?V0 + 1,DPH
   \   00011E   78..         MOV     R0,#?V0 + 0
   \   000120   12....       LCALL   ?PUSH_XSTACK_I_TWO
   \   000123   75..14       MOV     ?V0 + 0,#0x14
   \   000126   75..00       MOV     ?V0 + 1,#0x0
   \   000129   78..         MOV     R0,#?V0 + 0
   \   00012B   12....       LCALL   ?PUSH_XSTACK_I_TWO
   \   00012E   75..04       MOV     ?V0 + 0,#0x4
   \   000131   78..         MOV     R0,#?V0 + 0
   \   000133   12....       LCALL   ?PUSH_XSTACK_I_TWO
   \   000136   7920         MOV     R1,#0x20
   \   000138   7C..         MOV     R4,#SampleApp_epDesc & 0xff
   \   00013A   7D..         MOV     R5,#(SampleApp_epDesc >> 8) & 0xff
   \   00013C   7A..         MOV     R2,#Point_To_Point_DstAddr & 0xff
   \   00013E   7B..         MOV     R3,#(Point_To_Point_DstAddr >> 8) & 0xff
   \   000140   12....       LCALL   ??Subroutine17_0 & 0xFFFF
   \                     ??CrossCallReturnLabel_21:
   \   000143   12....       LCALL   ?DEALLOC_XSTACK8
    655            {
    656            }
    657            else
    658            {
    659              // Error occurred in request to send.
    660            }
    661          }
   \   000146   742C         MOV     A,#0x2c
   \   000148                REQUIRE ?Subroutine0
   \   000148                ; // Fall through to label ?Subroutine0

   \                                 In  segment BANKED_CODE, align 1, keep-with-next
   \                     ?Subroutine0:
   \   000000   12....       LCALL   ?DEALLOC_XSTACK8
   \   000003                REQUIRE ??Subroutine19_0
   \   000003                ; // Fall through to label ??Subroutine19_0

   \                                 In  segment BANKED_CODE, align 1, keep-with-next
   \                     ?Subroutine8:
   \   000000   12....       LCALL   ??Subroutine15_0 & 0xFFFF
   \                     ??CrossCallReturnLabel_12:
   \   000003   8C82         MOV     DPL,R4
   \   000005   8D83         MOV     DPH,R5
   \   000007   22           RET

   \                                 In  segment BANKED_CODE, align 1, keep-with-next
   \                     ?Subroutine4:
   \   000000   E5..         MOV     A,?V0 + 0
   \   000002   F0           MOVX    @DPTR,A
   \   000003   A3           INC     DPTR
   \   000004   E5..         MOV     A,?V0 + 1
   \   000006   F0           MOVX    @DPTR,A
   \   000007   8A82         MOV     DPL,R2
   \   000009   8B83         MOV     DPH,R3
   \   00000B   A3           INC     DPTR
   \   00000C   A3           INC     DPTR
   \   00000D   22           RET
    662          

   \                                 In  segment BANKED_CODE, align 1, keep-with-next
    663          void PrintSnesorData(uint8 sensortype)           
   \                     PrintSnesorData:
    664          {
   \   000000   74F6         MOV     A,#-0xa
   \   000002   12....       LCALL   ?BANKED_ENTER_XDATA
   \   000005                ; Saved register size: 10
   \   000005                ; Auto size: 0
   \   000005   E9           MOV     A,R1
    665            int v = 0;
    666            switch(sensortype)
   \   000006   14           DEC     A
   \   000007   6016         JZ      ??PrintSnesorData_0
   \   000009   14           DEC     A
   \   00000A   603E         JZ      ??PrintSnesorData_1
   \   00000C   14           DEC     A
   \   00000D   6054         JZ      ??PrintSnesorData_2
   \   00000F   24FE         ADD     A,#-0x2
   \   000011   6065         JZ      ??PrintSnesorData_3
   \   000013   14           DEC     A
   \   000014   7003         JNZ     $+5
   \   000016   02....       LJMP    ??PrintSnesorData_4 & 0xFFFF
   \   000019   14           DEC     A
   \   00001A   6075         JZ      ??PrintSnesorData_5
   \   00001C   02....       LJMP    ??PrintSnesorData_6 & 0xFFFF
    667            {
    668              case DHT11:
    669              // DHT11Read();
    670              // SerData[DHT11].id = DHT11;
    671              // SerData[DHT11].data1 = wendu_shi*10 + wendu_ge;
    672              // SerData[DHT11].data2 = shidu_shi*10 + shidu_ge;
    673              v = Single_Read_BH1750();
   \                     ??PrintSnesorData_0:
   \   00001F                ; Setup parameters for call to function Single_Read_BH1750
   \   00001F   12....       LCALL   ??Single_Read_BH1750?relay
   \   000022   8A..         MOV     ?V0 + 0,R2
   \   000024   8B..         MOV     ?V0 + 1,R3
   \   000026   AC..         MOV     R4,?V0 + 0
   \   000028   AD..         MOV     R5,?V0 + 1
    674              SerData[DHT11].id = DHT11;
   \   00002A   90....       MOV     DPTR,#SerData + 6
   \   00002D   7401         MOV     A,#0x1
   \   00002F   F0           MOVX    @DPTR,A
   \   000030   A3           INC     DPTR
   \   000031   E4           CLR     A
   \   000032   12....       LCALL   ?Subroutine5 & 0xFFFF
    675              SerData[DHT11].data1 = v/256;
   \                     ??CrossCallReturnLabel_2:
   \   000035   12....       LCALL   ?S_DIV_MOD
   \   000038   A3           INC     DPTR
   \   000039   E8           MOV     A,R0
   \   00003A   F0           MOVX    @DPTR,A
   \   00003B   A3           INC     DPTR
   \   00003C   E9           MOV     A,R1
   \   00003D   12....       LCALL   ?Subroutine5 & 0xFFFF
    676              SerData[DHT11].data2 = v%256;
   \                     ??CrossCallReturnLabel_3:
   \   000040   12....       LCALL   ?S_DIV_MOD
   \   000043   A3           INC     DPTR
   \   000044   EA           MOV     A,R2
   \   000045   F0           MOVX    @DPTR,A
   \   000046   A3           INC     DPTR
   \   000047   EB           MOV     A,R3
   \   000048   807A         SJMP    ??PrintSnesorData_7
    677              break;
    678          
    679              case LIGHTED:
    680              if(LIGHT == 0)
   \                     ??PrintSnesorData_1:
   \   00004A   A2A0         MOV     C,0xa0.0
   \   00004C   90....       MOV     DPTR,#SerData + 14
   \   00004F   4005         JC      ??PrintSnesorData_8
    681              {
    682                SerData[LIGHTED].data1  = 0;
   \   000051   E4           CLR     A
   \   000052   F0           MOVX    @DPTR,A
   \   000053   A3           INC     DPTR
   \   000054   8005         SJMP    ??PrintSnesorData_9
    683              }
    684              else
    685              {
    686                SerData[LIGHTED].data1  = 1;
   \                     ??PrintSnesorData_8:
   \   000056   7401         MOV     A,#0x1
   \   000058   F0           MOVX    @DPTR,A
   \   000059   A3           INC     DPTR
   \   00005A   E4           CLR     A
   \                     ??PrintSnesorData_9:
   \   00005B   F0           MOVX    @DPTR,A
    687              }
    688              SerData[LIGHTED].id = LIGHTED;
   \   00005C   90....       MOV     DPTR,#SerData + 12
   \   00005F   7402         MOV     A,#0x2
   \   000061   805E         SJMP    ??PrintSnesorData_10
    689              break;
    690          
    691              case DS18B20:
    692              Temp_test();
   \                     ??PrintSnesorData_2:
   \   000063                ; Setup parameters for call to function Temp_test
   \   000063   12....       LCALL   ??Temp_test?relay
    693              SerData[DS18B20].id = DS18B20;
   \   000066   90....       MOV     DPTR,#SerData + 18
   \   000069   7403         MOV     A,#0x3
   \   00006B   F0           MOVX    @DPTR,A
   \   00006C   A3           INC     DPTR
   \   00006D   E4           CLR     A
   \   00006E   F0           MOVX    @DPTR,A
    694              SerData[DS18B20].data1 = temp2;
   \   00006F   90....       MOV     DPTR,#temp2
   \   000072   E0           MOVX    A,@DPTR
   \   000073   90....       MOV     DPTR,#SerData + 20
   \   000076   8049         SJMP    ??PrintSnesorData_10
    695              break;
    696          
    697              case GAS_TYPE:
    698              if(GAS == 0)
   \                     ??PrintSnesorData_3:
   \   000078   A293         MOV     C,0x90.3
   \   00007A   90....       MOV     DPTR,#SerData + 32
   \   00007D   4005         JC      ??PrintSnesorData_11
    699              {
    700                SerData[GAS_TYPE].data1 = 0;
   \   00007F   E4           CLR     A
   \   000080   F0           MOVX    @DPTR,A
   \   000081   A3           INC     DPTR
   \   000082   8005         SJMP    ??PrintSnesorData_12
    701              }
    702              else
    703              {
    704                SerData[GAS_TYPE].data1 = 1;
   \                     ??PrintSnesorData_11:
   \   000084   7401         MOV     A,#0x1
   \   000086   F0           MOVX    @DPTR,A
   \   000087   A3           INC     DPTR
   \   000088   E4           CLR     A
   \                     ??PrintSnesorData_12:
   \   000089   F0           MOVX    @DPTR,A
    705              }
    706              SerData[GAS_TYPE].id = GAS_TYPE;
   \   00008A   90....       MOV     DPTR,#SerData + 30
   \   00008D   7405         MOV     A,#0x5
   \   00008F   8030         SJMP    ??PrintSnesorData_10
    707              break;
    708          
    709              case RAIN_TYPE:
    710              if(Rain == 0)
   \                     ??PrintSnesorData_5:
   \   000091   A292         MOV     C,0x90.2
   \   000093   90....       MOV     DPTR,#SerData + 44
   \   000096   4005         JC      ??PrintSnesorData_13
    711              {
    712                SerData[RAIN_TYPE].data1 = 0;
   \   000098   E4           CLR     A
   \   000099   F0           MOVX    @DPTR,A
   \   00009A   A3           INC     DPTR
   \   00009B   8005         SJMP    ??PrintSnesorData_14
    713              }
    714              else
    715              {
    716                SerData[RAIN_TYPE].data1 = 1;
   \                     ??PrintSnesorData_13:
   \   00009D   7401         MOV     A,#0x1
   \   00009F   F0           MOVX    @DPTR,A
   \   0000A0   A3           INC     DPTR
   \   0000A1   E4           CLR     A
   \                     ??PrintSnesorData_14:
   \   0000A2   F0           MOVX    @DPTR,A
    717              }
    718              SerData[RAIN_TYPE].id = RAIN_TYPE;
   \   0000A3   90....       MOV     DPTR,#SerData + 42
   \   0000A6   7407         MOV     A,#0x7
   \   0000A8   8017         SJMP    ??PrintSnesorData_10
    719              break;
    720          
    721              case FIRE_TYPE:
    722              if(FIRE == 0)
   \                     ??PrintSnesorData_4:
   \   0000AA   A286         MOV     C,0x80.6
   \   0000AC   90....       MOV     DPTR,#SerData + 38
   \   0000AF   4005         JC      ??PrintSnesorData_15
    723              {
    724                SerData[FIRE_TYPE].data1  = 0;
   \   0000B1   E4           CLR     A
   \   0000B2   F0           MOVX    @DPTR,A
   \   0000B3   A3           INC     DPTR
   \   0000B4   8005         SJMP    ??PrintSnesorData_16
    725              }
    726              else
    727              {
    728                SerData[FIRE_TYPE].data1  = 1;
   \                     ??PrintSnesorData_15:
   \   0000B6   7401         MOV     A,#0x1
   \   0000B8   F0           MOVX    @DPTR,A
   \   0000B9   A3           INC     DPTR
   \   0000BA   E4           CLR     A
   \                     ??PrintSnesorData_16:
   \   0000BB   F0           MOVX    @DPTR,A
    729              }
    730              SerData[FIRE_TYPE].id = FIRE_TYPE;
   \   0000BC   90....       MOV     DPTR,#SerData + 36
   \   0000BF   7406         MOV     A,#0x6
   \                     ??PrintSnesorData_10:
   \   0000C1   F0           MOVX    @DPTR,A
   \   0000C2   A3           INC     DPTR
   \   0000C3   E4           CLR     A
   \                     ??PrintSnesorData_7:
   \   0000C4   F0           MOVX    @DPTR,A
    731              break;
    732          
    733              case MAN_TYPE:
    734          
    735              break;    
    736          
    737              case BH1750_TYPE:
    738              // v = Single_Read_BH1750();
    739              // SerData[BH1750_TYPE].id = BH1750_TYPE;
    740              // SerData[BH1750_TYPE].data1 = v/256;
    741              // SerData[BH1750_TYPE].data2 = v%256;
    742              break;
    743            }
    744          }
   \                     ??PrintSnesorData_6:
   \   0000C5   02....       LJMP    ??Subroutine18_0 & 0xFFFF
   \   0000C8                REQUIRE _A_P2
   \   0000C8                REQUIRE _A_P1
   \   0000C8                REQUIRE _A_P0

   \                                 In  segment BANKED_CODE, align 1, keep-with-next
   \                     ?Subroutine5:
   \   000000   F0           MOVX    @DPTR,A
   \   000001   EC           MOV     A,R4
   \   000002   F8           MOV     R0,A
   \   000003   ED           MOV     A,R5
   \   000004   F9           MOV     R1,A
   \   000005   7A00         MOV     R2,#0x0
   \   000007   7B01         MOV     R3,#0x1
   \   000009   22           RET
    745          
    746          

   \                                 In  segment BANKED_CODE, align 1, keep-with-next
    747          void DataEncode(uint8 deviceid,uint16 deviceShortAddress,SER*p,char *DataOut)
   \                     DataEncode:
    748          {
   \   000000   74F5         MOV     A,#-0xb
   \   000002   12....       LCALL   ?BANKED_ENTER_XDATA
   \   000005                ; Saved register size: 11
   \   000005                ; Auto size: 2
   \   000005   74FE         MOV     A,#-0x2
   \   000007   12....       LCALL   ?ALLOC_XSTACK8
   \   00000A   85..82       MOV     DPL,?XSP + 0
   \   00000D   85..83       MOV     DPH,?XSP + 1
   \   000010   EA           MOV     A,R2
   \   000011   F0           MOVX    @DPTR,A
   \   000012   A3           INC     DPTR
   \   000013   EB           MOV     A,R3
   \   000014   F0           MOVX    @DPTR,A
   \   000015   E9           MOV     A,R1
   \   000016   FE           MOV     R6,A
   \   000017   740D         MOV     A,#0xd
   \   000019   12....       LCALL   ?XSTACK_DISP0_8
   \   00001C   E0           MOVX    A,@DPTR
   \   00001D   F8           MOV     R0,A
   \   00001E   A3           INC     DPTR
   \   00001F   E0           MOVX    A,@DPTR
   \   000020   F9           MOV     R1,A
    749            uint8 sum=0,i=0,_cnt=0;
    750            
    751            DataOut[_cnt++]=0xAA;
   \   000021   8882         MOV     DPL,R0
   \   000023   8983         MOV     DPH,R1
   \   000025   74AA         MOV     A,#-0x56
   \   000027   F0           MOVX    @DPTR,A
    752            DataOut[_cnt++]=0xAA;
   \   000028   A3           INC     DPTR
   \   000029   F0           MOVX    @DPTR,A
    753            DataOut[_cnt++]=0x03;
   \   00002A   8882         MOV     DPL,R0
   \   00002C   8983         MOV     DPH,R1
   \   00002E   A3           INC     DPTR
   \   00002F   A3           INC     DPTR
   \   000030   7403         MOV     A,#0x3
   \   000032   F0           MOVX    @DPTR,A
    754            DataOut[_cnt++]=0;
   \   000033   8882         MOV     DPL,R0
   \   000035   8983         MOV     DPH,R1
   \   000037   A3           INC     DPTR
   \   000038   A3           INC     DPTR
   \   000039   A3           INC     DPTR
   \   00003A   E4           CLR     A
   \   00003B   F0           MOVX    @DPTR,A
    755            DataOut[_cnt++]=deviceid;//陆碌茫id
   \   00003C   EE           MOV     A,R6
   \   00003D   8882         MOV     DPL,R0
   \   00003F   8983         MOV     DPH,R1
   \   000041   A3           INC     DPTR
   \   000042   A3           INC     DPTR
   \   000043   A3           INC     DPTR
   \   000044   A3           INC     DPTR
   \   000045   F0           MOVX    @DPTR,A
   \   000046   7F05         MOV     R7,#0x5
    756          
    757            for(i =0 ;i <4 ;i++)
   \   000048   75..00       MOV     ?V0 + 2,#0x0
    758            {
    759              p = p + i ;
   \                     ??DataEncode_0:
   \   00004B   E5..         MOV     A,?V0 + 2
   \   00004D   75F006       MOV     B,#0x6
   \   000050   A4           MUL     AB
   \   000051   FA           MOV     R2,A
   \   000052   85F0..       MOV     ?V0 + 0,B
   \   000055   AB..         MOV     R3,?V0 + 0
   \   000057   EC           MOV     A,R4
   \   000058   2A           ADD     A,R2
   \   000059   FC           MOV     R4,A
   \   00005A   ED           MOV     A,R5
   \   00005B   3B           ADDC    A,R3
   \   00005C   FD           MOV     R5,A
    760              DataOut[_cnt++]=p->id;
   \   00005D   8C82         MOV     DPL,R4
   \   00005F   8D83         MOV     DPH,R5
   \   000061   E0           MOVX    A,@DPTR
   \   000062   C0E0         PUSH    A
   \   000064   12....       LCALL   ?Subroutine10 & 0xFFFF
    761              DataOut[_cnt++]=BYTE0(p->data1);
    762              DataOut[_cnt++]=BYTE0(p->data2);
    763            }
   \                     ??CrossCallReturnLabel_24:
   \   000067   D0E0         POP     A
   \   000069   12....       LCALL   ?Subroutine6 & 0xFFFF
   \                     ??CrossCallReturnLabel_4:
   \   00006C   E0           MOVX    A,@DPTR
   \   00006D   C0E0         PUSH    A
   \   00006F   12....       LCALL   ?Subroutine10 & 0xFFFF
   \                     ??CrossCallReturnLabel_25:
   \   000072   D0E0         POP     A
   \   000074   12....       LCALL   ?Subroutine6 & 0xFFFF
   \                     ??CrossCallReturnLabel_5:
   \   000077   A3           INC     DPTR
   \   000078   A3           INC     DPTR
   \   000079   E0           MOVX    A,@DPTR
   \   00007A   C0E0         PUSH    A
   \   00007C   12....       LCALL   ?Subroutine10 & 0xFFFF
   \                     ??CrossCallReturnLabel_26:
   \   00007F   D0E0         POP     A
   \   000081   F0           MOVX    @DPTR,A
   \   000082   0F           INC     R7
   \   000083   05..         INC     ?V0 + 2
   \   000085   E5..         MOV     A,?V0 + 2
   \   000087   C3           CLR     C
   \   000088   9404         SUBB    A,#0x4
   \   00008A   40BF         JC      ??DataEncode_0
    764          
    765            DataOut[_cnt++]=BYTE1(deviceShortAddress);     
   \   00008C   7401         MOV     A,#0x1
   \   00008E   12....       LCALL   ?XSTACK_DISP0_8
   \   000091   E0           MOVX    A,@DPTR
   \   000092   C0E0         PUSH    A
   \   000094   12....       LCALL   ?Subroutine10 & 0xFFFF
   \                     ??CrossCallReturnLabel_27:
   \   000097   D0E0         POP     A
   \   000099   F0           MOVX    @DPTR,A
   \   00009A   0F           INC     R7
    766            DataOut[_cnt++]=BYTE0(deviceShortAddress);
   \   00009B   85..82       MOV     DPL,?XSP + 0
   \   00009E   85..83       MOV     DPH,?XSP + 1
   \   0000A1   E0           MOVX    A,@DPTR
   \   0000A2   C0E0         PUSH    A
   \   0000A4   12....       LCALL   ?Subroutine10 & 0xFFFF
   \                     ??CrossCallReturnLabel_28:
   \   0000A7   D0E0         POP     A
   \   0000A9   F0           MOVX    @DPTR,A
   \   0000AA   0F           INC     R7
    767          
    768            DataOut[3] = _cnt-4;
   \   0000AB   74FC         MOV     A,#-0x4
   \   0000AD   2F           ADD     A,R7
   \   0000AE   8882         MOV     DPL,R0
   \   0000B0   8983         MOV     DPH,R1
   \   0000B2   A3           INC     DPTR
   \   0000B3   A3           INC     DPTR
   \   0000B4   A3           INC     DPTR
   \   0000B5   F0           MOVX    @DPTR,A
    769            
    770            sum = 0;
   \   0000B6   7A00         MOV     R2,#0x0
    771            for(i=0;i<_cnt;i++)
   \   0000B8   8A..         MOV     ?V0 + 2,R2
   \   0000BA   800B         SJMP    ??DataEncode_1
    772              sum += DataOut[i];
   \                     ??DataEncode_2:
   \   0000BC   85....       MOV     ?V0 + 0,?V0 + 2
   \   0000BF   12....       LCALL   ??Subroutine20_0 & 0xFFFF
   \                     ??CrossCallReturnLabel_23:
   \   0000C2   E0           MOVX    A,@DPTR
   \   0000C3   2A           ADD     A,R2
   \   0000C4   FA           MOV     R2,A
   \   0000C5   05..         INC     ?V0 + 2
   \                     ??DataEncode_1:
   \   0000C7   E5..         MOV     A,?V0 + 2
   \   0000C9   C3           CLR     C
   \   0000CA   9F           SUBB    A,R7
   \   0000CB   40EF         JC      ??DataEncode_2
    773            
    774            DataOut[_cnt++]=sum;
   \   0000CD   12....       LCALL   ?Subroutine10 & 0xFFFF
   \                     ??CrossCallReturnLabel_29:
   \   0000D0   EA           MOV     A,R2
   \   0000D1   F0           MOVX    @DPTR,A
    775          }
   \   0000D2   7402         MOV     A,#0x2
   \   0000D4   02....       LJMP    ?Subroutine0 & 0xFFFF

   \                                 In  segment BANKED_CODE, align 1, keep-with-next
   \                     ?Subroutine10:
   \   000000   8F..         MOV     ?V0 + 0,R7
   \   000002                REQUIRE ??Subroutine20_0
   \   000002                ; // Fall through to label ??Subroutine20_0

   \                                 In  segment BANKED_CODE, align 1, keep-with-next
   \                     ??Subroutine20_0:
   \   000000   E8           MOV     A,R0
   \   000001   25..         ADD     A,?V0 + 0
   \   000003   F582         MOV     DPL,A
   \   000005   E9           MOV     A,R1
   \   000006                REQUIRE ??Subroutine21_0
   \   000006                ; // Fall through to label ??Subroutine21_0

   \                                 In  segment BANKED_CODE, align 1, keep-with-next
   \                     ?Subroutine6:
   \   000000   F0           MOVX    @DPTR,A
   \   000001   0F           INC     R7
   \   000002   8C82         MOV     DPL,R4
   \   000004   8D83         MOV     DPH,R5
   \   000006   A3           INC     DPTR
   \   000007   A3           INC     DPTR
   \   000008   22           RET
    776          

   \                                 In  segment BANKED_CODE, align 1, keep-with-next
    777          void UartPrintString(char *tar)
   \                     UartPrintString:
    778          {
   \   000000   74F7         MOV     A,#-0x9
   \   000002   12....       LCALL   ?BANKED_ENTER_XDATA
   \   000005                ; Saved register size: 9
   \   000005                ; Auto size: 0
   \   000005   EA           MOV     A,R2
   \   000006   FE           MOV     R6,A
   \   000007   EB           MOV     A,R3
   \   000008   FF           MOV     R7,A
    779             HalUARTWrite(0,tar,strlen(tar));
                                   ^
Warning[Pe167]: argument of type "char *" is incompatible with parameter of
          type "unsigned char *"
   \   000009                ; Setup parameters for call to function HalUARTWrite
   \   000009                ; Setup parameters for call to function strlen
   \   000009   12....       LCALL   ??strlen?relay
   \   00000C   EA           MOV     A,R2
   \   00000D   FC           MOV     R4,A
   \   00000E   EB           MOV     A,R3
   \   00000F   FD           MOV     R5,A
   \   000010   EE           MOV     A,R6
   \   000011   FA           MOV     R2,A
   \   000012   EF           MOV     A,R7
   \   000013   FB           MOV     R3,A
   \   000014   7900         MOV     R1,#0x0
   \   000016   12....       LCALL   ??HalUARTWrite?relay
    780          }
   \   000019   02....       LJMP    ??Subroutine14_0 & 0xFFFF
    781          

   \                                 In  segment BANKED_CODE, align 1, keep-with-next
    782          void UartPrintNum(int num)
   \                     UartPrintNum:
    783          {
   \   000000   C082         PUSH    DPL
   \   000002   C083         PUSH    DPH
   \   000004                ; Saved register size: 2
   \   000004                ; Auto size: 2
   \   000004   74FE         MOV     A,#-0x2
   \   000006   12....       LCALL   ?ALLOC_XSTACK8
   \   000009   EA           MOV     A,R2
   \   00000A   FC           MOV     R4,A
   \   00000B   EB           MOV     A,R3
   \   00000C   FD           MOV     R5,A
    784            char shi = 0;
    785            char ge = 0;
    786            char send[2];
    787          
    788            shi = num / 10;
    789            shi += 48;
    790            ge = num %10;
    791            ge += 48;
    792            send[0] = shi;
   \   00000D   EC           MOV     A,R4
   \   00000E   F8           MOV     R0,A
   \   00000F   ED           MOV     A,R5
   \   000010   F9           MOV     R1,A
   \   000011   7A0A         MOV     R2,#0xa
   \   000013   7B00         MOV     R3,#0x0
   \   000015   12....       LCALL   ?S_DIV_MOD
   \   000018   E8           MOV     A,R0
   \   000019   2430         ADD     A,#0x30
   \   00001B   85..82       MOV     DPL,?XSP + 0
   \   00001E   85..83       MOV     DPH,?XSP + 1
   \   000021   F0           MOVX    @DPTR,A
    793            send[1] = ge;
   \   000022   EC           MOV     A,R4
   \   000023   F8           MOV     R0,A
   \   000024   ED           MOV     A,R5
   \   000025   F9           MOV     R1,A
   \   000026   7A0A         MOV     R2,#0xa
   \   000028   7B00         MOV     R3,#0x0
   \   00002A   12....       LCALL   ?S_DIV_MOD
   \   00002D   EA           MOV     A,R2
   \   00002E   2430         ADD     A,#0x30
   \   000030   C0E0         PUSH    A
   \   000032   7401         MOV     A,#0x1
   \   000034   12....       LCALL   ?XSTACK_DISP0_8
   \   000037   D0E0         POP     A
   \   000039   F0           MOVX    @DPTR,A
    794            HalUARTWrite(0,send,2);
                                  ^
Warning[Pe167]: argument of type "char *" is incompatible with parameter of
          type "unsigned char *"
   \   00003A                ; Setup parameters for call to function HalUARTWrite
   \   00003A   7C02         MOV     R4,#0x2
   \   00003C   7D00         MOV     R5,#0x0
   \   00003E   85..82       MOV     DPL,?XSP + 0
   \   000041   85..83       MOV     DPH,?XSP + 1
   \   000044   AA82         MOV     R2,DPL
   \   000046   AB83         MOV     R3,DPH
   \   000048   7900         MOV     R1,#0x0
   \   00004A   12....       LCALL   ??HalUARTWrite?relay
    795          }
   \   00004D   7402         MOV     A,#0x2
   \   00004F   12....       LCALL   ?DEALLOC_XSTACK8
   \   000052   D083         POP     DPH
   \   000054   D082         POP     DPL
   \   000056   02....       LJMP    ?BRET

   \                                 In  segment BANK_RELAYS, align 1
   \                     ??SampleApp_Init?relay:
   \   000000   12....       LCALL   ?BDISPATCH
   \   000003   ......       DC24    SampleApp_Init

   \                                 In  segment BANK_RELAYS, align 1
   \                     ??SampleApp_ProcessEvent?relay:
   \   000000   12....       LCALL   ?BDISPATCH
   \   000003   ......       DC24    SampleApp_ProcessEvent

   \                                 In  segment BANK_RELAYS, align 1
   \                     ??SampleApp_HandleKeys?relay:
   \   000000   12....       LCALL   ?BDISPATCH
   \   000003   ......       DC24    SampleApp_HandleKeys

   \                                 In  segment BANK_RELAYS, align 1
   \                     ??LightMotionAct?relay:
   \   000000   12....       LCALL   ?BDISPATCH
   \   000003   ......       DC24    LightMotionAct

   \                                 In  segment BANK_RELAYS, align 1
   \                     ??MotorMotionAct?relay:
   \   000000   12....       LCALL   ?BDISPATCH
   \   000003   ......       DC24    MotorMotionAct

   \                                 In  segment BANK_RELAYS, align 1
   \                     ??SampleApp_MessageMSGCB?relay:
   \   000000   12....       LCALL   ?BDISPATCH
   \   000003   ......       DC24    SampleApp_MessageMSGCB

   \                                 In  segment BANK_RELAYS, align 1
   \                     ??SampleApp_SendPeriodicMessage?relay:
   \   000000   12....       LCALL   ?BDISPATCH
   \   000003   ......       DC24    SampleApp_SendPeriodicMessage

   \                                 In  segment BANK_RELAYS, align 1
   \                     ??SampleApp_SendFlashMessage?relay:
   \   000000   12....       LCALL   ?BDISPATCH
   \   000003   ......       DC24    SampleApp_SendFlashMessage

   \                                 In  segment BANK_RELAYS, align 1
   \                     ??SampleApp_SerialCMD?relay:
   \   000000   12....       LCALL   ?BDISPATCH
   \   000003   ......       DC24    SampleApp_SerialCMD

   \                                 In  segment BANK_RELAYS, align 1
   \                     ??Sample_SendPointToPointMessage?relay:
   \   000000   12....       LCALL   ?BDISPATCH
   \   000003   ......       DC24    Sample_SendPointToPointMessage

   \                                 In  segment BANK_RELAYS, align 1
   \                     ??PrintSnesorData?relay:
   \   000000   12....       LCALL   ?BDISPATCH
   \   000003   ......       DC24    PrintSnesorData

   \                                 In  segment BANK_RELAYS, align 1
   \                     ??DataEncode?relay:
   \   000000   12....       LCALL   ?BDISPATCH
   \   000003   ......       DC24    DataEncode

   \                                 In  segment BANK_RELAYS, align 1
   \                     ??UartPrintString?relay:
   \   000000   12....       LCALL   ?BDISPATCH
   \   000003   ......       DC24    UartPrintString

   \                                 In  segment BANK_RELAYS, align 1
   \                     ??UartPrintNum?relay:
   \   000000   12....       LCALL   ?BDISPATCH
   \   000003   ......       DC24    UartPrintNum

   \                                 In  segment XDATA_ROM_C, align 1
   \                     `?<Constant "Hello World\\n">`:
   \   000000   48656C6C     DB "Hello World\012"
   \            6F20576F
   \            726C640A
   \            00      

   \                                 In  segment XDATA_ROM_C, align 1
   \                     `?<Constant "FIRE_TYPE:">`:
   \   000000   46495245     DB "FIRE_TYPE:"
   \            5F545950
   \            453A00  

   \                                 In  segment XDATA_ROM_C, align 1
   \                     `?<Constant "Group 1">`:
   \   000000   47726F75     DB "Group 1"
   \            70203100

   \                                 In  segment XDATA_ROM_C, align 1
   \                     `?<Constant "SampleApp">`:
   \   000000   53616D70     DB "SampleApp"
   \            6C654170
   \            7000    

   Maximum stack usage in bytes:

     Function                       ISTACK PSTACK XSTACK
     --------                       ------ ------ ------
     DataEncode                         1      0     70
     LightMotionAct                     0      0     41
       -> HalLedSet                     0      0     18
       -> HalLedSet                     0      0     18
     MotorMotionAct                     0      0     41
       -> HalLedSet                     0      0     18
       -> HalLedSet                     0      0     18
     PrintSnesorData                    0      0     22
       -> Single_Read_BH1750            0      0     20
       -> Temp_test                     0      0     20
     SampleApp_HandleKeys               0      0     22
       -> SampleApp_SendFlashMessage
                                        0      0     20
       -> aps_FindGroup                 0      0     20
       -> aps_RemoveGroup               0      0     20
       -> aps_AddGroup                  0      0     20
     SampleApp_Init                     0      0     14
       -> MT_UartInit                   0      0     22
       -> MT_UartRegisterTaskID         0      0     22
       -> HalUARTWrite                  0      0     22
       -> UartPrintString               0      0     22
       -> UartPrintNum                  0      0     22
       -> InitFire                      0      0     22
       -> Bh1750_Init                   0      0     22
       -> afRegister                    0      0     22
       -> RegisterForKeys               0      0     22
       -> osal_memcpy                   0      0     28
       -> aps_AddGroup                  0      0     22
       -> HalLcdWriteString             0      0     22
     SampleApp_MessageMSGCB             1      0     46
       -> LightMotionAct                0      0     64
       -> MotorMotionAct                0      0     64
       -> memset                        0      0     68
       -> HalUARTWrite                  0      0     64
     SampleApp_ProcessEvent             0      0     12
       -> osal_msg_receive              0      0     24
       -> osal_start_timerEx            0      0     24
       -> osal_msg_deallocate           0      0     24
       -> osal_msg_receive              0      0     24
       -> SampleApp_SerialCMD           0      0     24
       -> SampleApp_HandleKeys          0      0     24
       -> SampleApp_MessageMSGCB        0      0     24
       -> PrintSnesorData               0      0     24
       -> PrintSnesorData               0      0     24
       -> Sample_SendPointToPointMessage
                                        0      0     24
       -> osal_rand                     0      0     24
       -> osal_start_timerEx            0      0     24
     SampleApp_SendFlashMessage         1      0     32
       -> AF_DataRequest                0      0     44
     SampleApp_SendPeriodicMessage      0      0     19
       -> AF_DataRequest                0      0     38
     SampleApp_SerialCMD                0      0     33
       -> AF_DataRequest                0      0     42
     Sample_SendPointToPointMessage     0      0     76
       -> memset                        0      0    114
       -> DataEncode                    0      0    114
       -> AF_DataRequest                0      0    128
     UartPrintNum                       3      0     13
       -> HalUARTWrite                  4      0      4
     UartPrintString                    0      0     20
       -> strlen                        0      0     18
       -> HalUARTWrite                  0      0     18


   Segment part sizes:

     Function/Label                         Bytes
     --------------                         -----
     _A_P0                                     1
     _A_P1                                     1
     _A_P2                                     1
     SampleApp_ClusterList                     8
     SampleApp_SimpleDesc                     12
     SampleApp_epDesc                          6
     SampleApp_TaskID                          1
     SampleApp_NwkState                        1
     SampleApp_TransID                         1
     SampleApp_Periodic_DstAddr               12
     SampleApp_Flash_DstAddr                  12
     Point_To_Point_DstAddr                   12
     SampleApp_Group                          18
     SampleAppPeriodicCounter                  1
     SampleAppFlashCounter                     1
     RxData                                   20
     RxDataLen                                 1
     deviceid                                  1
     data_to_send                             50
     SerData                                  60
     SampleApp_Init                          222
     ??Subroutine19_0                          5
     SampleApp_ProcessEvent                  196
     ?Subroutine1                              5
     SampleApp_HandleKeys                     62
     ??Subroutine18_0                          5
     LightMotionAct                           20
     ?Subroutine3                              3
     ??Subroutine14_0                          5
     MotorMotionAct                           22
     SampleApp_MessageMSGCB                  281
     ?Subroutine13                             2
     ??Subroutine15_0                          8
     ?Subroutine9                              1
     ??Subroutine16_0                          8
     ?Subroutine7                             15
     ?Subroutine2                              3
     ?Subroutine11                            11
     ??Subroutine21_0                          5
     SampleApp_SendPeriodicMessage            57
     ?Subroutine12                            10
     ??Subroutine17_0                          6
     SampleApp_SendFlashMessage              113
     SampleApp_SerialCMD                      77
     Sample_SendPointToPointMessage          328
     ?Subroutine0                              3
     ?Subroutine8                              8
     ?Subroutine4                             14
     PrintSnesorData                         200
     ?Subroutine5                             10
     DataEncode                              215
     ?Subroutine10                             2
     ??Subroutine20_0                          6
     ?Subroutine6                              9
     UartPrintString                          28
     UartPrintNum                             89
     ??SampleApp_Init?relay                    6
     ??SampleApp_ProcessEvent?relay            6
     ??SampleApp_HandleKeys?relay              6
     ??LightMotionAct?relay                    6
     ??MotorMotionAct?relay                    6
     ??SampleApp_MessageMSGCB?relay            6
     ??SampleApp_SendPeriodicMessage?relay     6
     ??SampleApp_SendFlashMessage?relay        6
     ??SampleApp_SerialCMD?relay               6
     ??Sample_SendPointToPointMessage?relay    6
     ??PrintSnesorData?relay                   6
     ??DataEncode?relay                        6
     ??UartPrintString?relay                   6
     ??UartPrintNum?relay                      6
     ?<Constant "Hello World\n">              13
     ?<Constant "FIRE_TYPE:">                 11
     ?<Constant "Group 1">                     8
     ?<Constant "SampleApp">                  10

 
 2 054 bytes in segment BANKED_CODE
    84 bytes in segment BANK_RELAYS
     3 bytes in segment SFR_AN
    62 bytes in segment XDATA_ROM_C
   197 bytes in segment XDATA_Z
 
 2 138 bytes of CODE  memory
    62 bytes of CONST memory
     0 bytes of DATA  memory (+ 3 bytes shared)
   197 bytes of XDATA memory

Errors: none
Warnings: 5
