///////////////////////////////////////////////////////////////////////////////
//                                                                            /
// IAR C/C++ Compiler V8.10.1.10194/W32 for 8051        30/May/2016  20:08:46 /
// Copyright 2004-2011 IAR Systems AB.                                        /
//                                                                            /
//    Core               =  plain                                             /
//    Code model         =  banked                                            /
//    Data model         =  large                                             /
//    Calling convention =  xdata reentrant                                   /
//    Constant location  =  data_rom                                          /
//    Dptr setup         =  1,16                                              /
//    Source file        =  E:\www\zigbee_for_smarthome\Projects\zstack\Sampl /
//                          es\SampleApp\Source\input.c                       /
//    Command line       =  -f E:\www\zigbee_for_smarthome\Projects\zstack\Sa /
//                          mples\SampleApp\CC2530DB\..\..\..\Tools\CC2530DB\ /
//                          f8wEndev.cfg (-DCPU32MHZ -DROOT=__near_func       /
//                          -DMAC_CFG_TX_DATA_MAX=3 -DMAC_CFG_TX_MAX=6        /
//                          -DMAC_CFG_RX_MAX=3) -f E:\www\zigbee_for_smarthom /
//                          e\Projects\zstack\Samples\SampleApp\CC2530DB\..\. /
//                          .\..\Tools\CC2530DB\f8wConfig.cfg (-DZIGBEEPRO    /
//                          -DSECURE=0 -DZG_SECURE_DYNAMIC=0 -DREFLECTOR      /
//                          -DDEFAULT_CHANLIST=0x00000800                     /
//                          -DZDAPP_CONFIG_PAN_ID=0xFF00                      /
//                          -DNWK_START_DELAY=100 -DEXTENDED_JOINING_RANDOM_M /
//                          ASK=0x007F -DBEACON_REQUEST_DELAY=100             /
//                          -DBEACON_REQ_DELAY_MASK=0x00FF                    /
//                          -DLINK_STATUS_JITTER_MASK=0x007F                  /
//                          -DROUTE_EXPIRY_TIME=30 -DAPSC_ACK_WAIT_DURATION_P /
//                          OLLED=3000 -DNWK_INDIRECT_MSG_TIMEOUT=7           /
//                          -DMAX_RREQ_ENTRIES=8 -DAPSC_MAX_FRAME_RETRIES=3   /
//                          -DNWK_MAX_DATA_RETRIES=2                          /
//                          -DMAX_POLL_FAILURE_RETRIES=2 -DMAX_BCAST=9        /
//                          -DAPS_MAX_GROUPS=16 -DMAX_RTG_ENTRIES=40          /
//                          -DNWK_MAX_BINDING_ENTRIES=4                       /
//                          -DMAX_BINDING_CLUSTER_IDS=4                       /
//                          "-DDEFAULT_KEY={0x01, 0x03, 0x05, 0x07, 0x09,     /
//                          0x0B, 0x0D, 0x0F, 0x00, 0x02, 0x04, 0x06, 0x08,   /
//                          0x0A, 0x0C, 0x0D}" -DMAC_MAX_FRAME_SIZE=116       /
//                          -DZDNWKMGR_MIN_TRANSMISSIONS=20 "-DCONST=const    /
//                          __code" -DGENERIC=__generic                       /
//                          -DRFD_RCVC_ALWAYS_ON=FALSE -DPOLL_RATE=1000       /
//                          -DQUEUED_POLL_RATE=100 -DRESPONSE_POLL_RATE=100)  /
//                          -DREJOIN_POLL_RATE=440 E:\www\zigbee_for_smarthom /
//                          e\Projects\zstack\Samples\SampleApp\Source\input. /
//                          c -D NWK_AUTO_POLL -D ZTOOL_P1 -D xMT_TASK -D     /
//                          xMT_SYS_FUNC -D xMT_ZDO_FUNC -D                   /
//                          LCD_SUPPORTED=DEBUG -lC                           /
//                          E:\www\zigbee_for_smarthome\Projects\zstack\Sampl /
//                          es\SampleApp\CC2530DB\EndDeviceEB\List\ -lA       /
//                          E:\www\zigbee_for_smarthome\Projects\zstack\Sampl /
//                          es\SampleApp\CC2530DB\EndDeviceEB\List\           /
//                          --diag_suppress Pe001,Pa010 -o                    /
//                          E:\www\zigbee_for_smarthome\Projects\zstack\Sampl /
//                          es\SampleApp\CC2530DB\EndDeviceEB\Obj\ -e         /
//                          --no_code_motion --debug --core=plain             /
//                          --dptr=16,1 --data_model=large                    /
//                          --code_model=banked --calling_convention=xdata_re /
//                          entrant --place_constants=data_rom                /
//                          --nr_virtual_regs 16 -I                           /
//                          E:\www\zigbee_for_smarthome\Projects\zstack\Sampl /
//                          es\SampleApp\CC2530DB\ -I                         /
//                          E:\www\zigbee_for_smarthome\Projects\zstack\Sampl /
//                          es\SampleApp\CC2530DB\..\Source\ -I               /
//                          E:\www\zigbee_for_smarthome\Projects\zstack\Sampl /
//                          es\SampleApp\CC2530DB\..\..\..\ZMain\TI2530DB\    /
//                          -I E:\www\zigbee_for_smarthome\Projects\zstack\Sa /
//                          mples\SampleApp\CC2530DB\..\..\..\..\..\Component /
//                          s\hal\include\ -I E:\www\zigbee_for_smarthome\Pro /
//                          jects\zstack\Samples\SampleApp\CC2530DB\..\..\..\ /
//                          ..\..\Components\hal\target\CC2530EB\ -I          /
//                          E:\www\zigbee_for_smarthome\Projects\zstack\Sampl /
//                          es\SampleApp\CC2530DB\..\..\..\..\..\Components\m /
//                          ac\include\ -I E:\www\zigbee_for_smarthome\Projec /
//                          ts\zstack\Samples\SampleApp\CC2530DB\..\..\..\..\ /
//                          ..\Components\mac\high_level\ -I                  /
//                          E:\www\zigbee_for_smarthome\Projects\zstack\Sampl /
//                          es\SampleApp\CC2530DB\..\..\..\..\..\Components\m /
//                          ac\low_level\srf04\ -I E:\www\zigbee_for_smarthom /
//                          e\Projects\zstack\Samples\SampleApp\CC2530DB\..\. /
//                          .\..\..\..\Components\mac\low_level\srf04\single_ /
//                          chip\ -I E:\www\zigbee_for_smarthome\Projects\zst /
//                          ack\Samples\SampleApp\CC2530DB\..\..\..\..\..\Com /
//                          ponents\mt\ -I E:\www\zigbee_for_smarthome\Projec /
//                          ts\zstack\Samples\SampleApp\CC2530DB\..\..\..\..\ /
//                          ..\Components\osal\include\ -I                    /
//                          E:\www\zigbee_for_smarthome\Projects\zstack\Sampl /
//                          es\SampleApp\CC2530DB\..\..\..\..\..\Components\s /
//                          ervices\saddr\ -I E:\www\zigbee_for_smarthome\Pro /
//                          jects\zstack\Samples\SampleApp\CC2530DB\..\..\..\ /
//                          ..\..\Components\services\sdata\ -I               /
//                          E:\www\zigbee_for_smarthome\Projects\zstack\Sampl /
//                          es\SampleApp\CC2530DB\..\..\..\..\..\Components\s /
//                          tack\af\ -I E:\www\zigbee_for_smarthome\Projects\ /
//                          zstack\Samples\SampleApp\CC2530DB\..\..\..\..\..\ /
//                          Components\stack\nwk\ -I                          /
//                          E:\www\zigbee_for_smarthome\Projects\zstack\Sampl /
//                          es\SampleApp\CC2530DB\..\..\..\..\..\Components\s /
//                          tack\sapi\ -I E:\www\zigbee_for_smarthome\Project /
//                          s\zstack\Samples\SampleApp\CC2530DB\..\..\..\..\. /
//                          .\Components\stack\sec\ -I                        /
//                          E:\www\zigbee_for_smarthome\Projects\zstack\Sampl /
//                          es\SampleApp\CC2530DB\..\..\..\..\..\Components\s /
//                          tack\sys\ -I E:\www\zigbee_for_smarthome\Projects /
//                          \zstack\Samples\SampleApp\CC2530DB\..\..\..\..\.. /
//                          \Components\stack\zdo\ -I                         /
//                          E:\www\zigbee_for_smarthome\Projects\zstack\Sampl /
//                          es\SampleApp\CC2530DB\..\..\..\..\..\Components\z /
//                          mac\ -I E:\www\zigbee_for_smarthome\Projects\zsta /
//                          ck\Samples\SampleApp\CC2530DB\..\..\..\..\..\Comp /
//                          onents\zmac\f8w\ -Ohz                             /
//    List file          =  E:\www\zigbee_for_smarthome\Projects\zstack\Sampl /
//                          es\SampleApp\CC2530DB\EndDeviceEB\List\input.s51  /
//                                                                            /
//                                                                            /
///////////////////////////////////////////////////////////////////////////////

        NAME input

        RTMODEL "__SystemLibrary", "CLib"
        RTMODEL "__calling_convention", "xdata_reentrant"
        RTMODEL "__code_model", "banked"
        RTMODEL "__core", "plain"
        RTMODEL "__data_model", "large"
        RTMODEL "__dptr_size", "16"
        RTMODEL "__extended_stack", "disabled"
        RTMODEL "__location_for_constants", "data"
        RTMODEL "__number_of_dptrs", "1"
        RTMODEL "__rt_version", "1"

        RSEG DOVERLAY:DATA:NOROOT(0)
        RSEG IOVERLAY:IDATA:NOROOT(0)
        RSEG ISTACK:IDATA:NOROOT(0)
        RSEG PSTACK:XDATA:NOROOT(0)
        RSEG XSTACK:XDATA:NOROOT(0)

        EXTERN ?BDISPATCH
        EXTERN ?BRET

        PUBLIC ??InitFire?relay
        FUNCTION ??InitFire?relay,0203H
        PUBLIC ??InitGas?relay
        FUNCTION ??InitGas?relay,0203H
        PUBLIC ??InitMan?relay
        FUNCTION ??InitMan?relay,0203H
        PUBLIC ??InitRain?relay
        FUNCTION ??InitRain?relay,0203H
        PUBLIC InitFire
        FUNCTION InitFire,0201H
        ARGFRAME XSTACK, 0, STACK
        PUBLIC InitGas
        FUNCTION InitGas,0201H
        ARGFRAME XSTACK, 0, STACK
        PUBLIC InitMan
        FUNCTION InitMan,0201H
        ARGFRAME XSTACK, 0, STACK
        PUBLIC InitRain
        FUNCTION InitRain,0201H
        ARGFRAME XSTACK, 0, STACK
        PUBWEAK P0DIR
        PUBWEAK P0INP
        PUBWEAK P0SEL
        PUBWEAK P1DIR
        PUBWEAK P1INP
        PUBWEAK P1SEL
        
        CFI Names cfiNames0
        CFI StackFrame CFA_SP SP IDATA
        CFI StackFrame CFA_PSP16 PSP16 XDATA
        CFI StackFrame CFA_XSP16 XSP16 XDATA
        CFI StaticOverlayFrame CFA_IOVERLAY IOVERLAY
        CFI StaticOverlayFrame CFA_DOVERLAY DOVERLAY
        CFI Resource `PSW.CY`:1, `B.BR0`:1, `B.BR1`:1, `B.BR2`:1, `B.BR3`:1
        CFI Resource `B.BR4`:1, `B.BR5`:1, `B.BR6`:1, `B.BR7`:1, `VB.BR8`:1
        CFI Resource `VB.BR9`:1, `VB.BR10`:1, `VB.BR11`:1, `VB.BR12`:1
        CFI Resource `VB.BR13`:1, `VB.BR14`:1, `VB.BR15`:1, VB:8, B:8, A:8
        CFI Resource PSW:8, DPL0:8, DPH0:8, R0:8, R1:8, R2:8, R3:8, R4:8, R5:8
        CFI Resource R6:8, R7:8, V0:8, V1:8, V2:8, V3:8, V4:8, V5:8, V6:8, V7:8
        CFI Resource V8:8, V9:8, V10:8, V11:8, V12:8, V13:8, V14:8, V15:8, SP:8
        CFI Resource PSPH:8, PSPL:8, PSP16:16, XSPH:8, XSPL:8, XSP16:16
        CFI VirtualResource ?RET:24
        CFI Resource ?BRET_EXT:8
        CFI VirtualResource ?RET_HIGH:8, ?RET_LOW:8
        CFI ResourceParts PSP16 PSPH, PSPL
        CFI ResourceParts XSP16 XSPH, XSPL
        CFI ResourceParts ?RET ?BRET_EXT, ?RET_HIGH, ?RET_LOW
        CFI EndNames cfiNames0
        
        CFI Common cfiCommon0 Using cfiNames0
        CFI CodeAlign 1
        CFI DataAlign -1
        CFI ReturnAddress ?RET CODE
        CFI CFA_DOVERLAY Used
        CFI CFA_IOVERLAY Used
        CFI CFA_SP SP+-3
        CFI CFA_PSP16 PSP16+0
        CFI CFA_XSP16 XSP16+0
        CFI `PSW.CY` SameValue
        CFI `B.BR0` SameValue
        CFI `B.BR1` SameValue
        CFI `B.BR2` SameValue
        CFI `B.BR3` SameValue
        CFI `B.BR4` SameValue
        CFI `B.BR5` SameValue
        CFI `B.BR6` SameValue
        CFI `B.BR7` SameValue
        CFI `VB.BR8` SameValue
        CFI `VB.BR9` SameValue
        CFI `VB.BR10` SameValue
        CFI `VB.BR11` SameValue
        CFI `VB.BR12` SameValue
        CFI `VB.BR13` SameValue
        CFI `VB.BR14` SameValue
        CFI `VB.BR15` SameValue
        CFI VB SameValue
        CFI B Undefined
        CFI A Undefined
        CFI PSW SameValue
        CFI DPL0 SameValue
        CFI DPH0 SameValue
        CFI R0 Undefined
        CFI R1 Undefined
        CFI R2 Undefined
        CFI R3 Undefined
        CFI R4 Undefined
        CFI R5 Undefined
        CFI R6 SameValue
        CFI R7 SameValue
        CFI V0 SameValue
        CFI V1 SameValue
        CFI V2 SameValue
        CFI V3 SameValue
        CFI V4 SameValue
        CFI V5 SameValue
        CFI V6 SameValue
        CFI V7 SameValue
        CFI V8 SameValue
        CFI V9 SameValue
        CFI V10 SameValue
        CFI V11 SameValue
        CFI V12 SameValue
        CFI V13 SameValue
        CFI V14 SameValue
        CFI V15 SameValue
        CFI PSPH Undefined
        CFI PSPL Undefined
        CFI XSPH Undefined
        CFI XSPL Undefined
        CFI ?RET Concat
        CFI ?BRET_EXT Frame(CFA_SP, 3)
        CFI ?RET_HIGH Frame(CFA_SP, 2)
        CFI ?RET_LOW Frame(CFA_SP, 1)
        CFI EndCommon cfiCommon0
        
InitFire            SYMBOL "InitFire"
??InitFire?relay    SYMBOL "?relay", InitFire
InitGas             SYMBOL "InitGas"
??InitGas?relay     SYMBOL "?relay", InitGas
InitMan             SYMBOL "InitMan"
??InitMan?relay     SYMBOL "?relay", InitMan
InitRain            SYMBOL "InitRain"
??InitRain?relay    SYMBOL "?relay", InitRain

// E:\www\zigbee_for_smarthome\Projects\zstack\Samples\SampleApp\Source\input.c
//    1 #include "input.h"

        ASEGN SFR_AN:DATA:NOROOT,08fH
// unsigned char volatile __sfr P0INP
P0INP:
        DATA8
        DS 1

        ASEGN SFR_AN:DATA:NOROOT,0f3H
// unsigned char volatile __sfr P0SEL
P0SEL:
        DATA8
        DS 1

        ASEGN SFR_AN:DATA:NOROOT,0f4H
// unsigned char volatile __sfr P1SEL
P1SEL:
        DATA8
        DS 1

        ASEGN SFR_AN:DATA:NOROOT,0f6H
// unsigned char volatile __sfr P1INP
P1INP:
        DATA8
        DS 1

        ASEGN SFR_AN:DATA:NOROOT,0fdH
// unsigned char volatile __sfr P0DIR
P0DIR:
        DATA8
        DS 1

        ASEGN SFR_AN:DATA:NOROOT,0feH
// unsigned char volatile __sfr P1DIR
P1DIR:
        DATA8
        DS 1
//    2 

        RSEG BANKED_CODE:CODE:NOROOT(0)
//    3 void InitGas()
InitGas:
        CFI Block cfiBlock0 Using cfiCommon0
        CFI Function InitGas
        CODE
//    4 {
        ; Saved register size: 0
        ; Auto size: 0
//    5   P1SEL &= ~0X08;     
        ANL     0xf4,#0xf7
//    6   P1DIR &= ~0X08;    
        ANL     0xfe,#0xf7
//    7   P1INP &= ~0x08;   
        ANL     0xf6,#0xf7
//    8 }
        LJMP    ?BRET
        CFI EndBlock cfiBlock0
        REQUIRE P1SEL
        REQUIRE P1DIR
        REQUIRE P1INP
//    9 

        RSEG BANKED_CODE:CODE:NOROOT(0)
//   10 void InitRain()
InitRain:
        CFI Block cfiBlock1 Using cfiCommon0
        CFI Function InitRain
        CODE
//   11 {
        ; Saved register size: 0
        ; Auto size: 0
//   12     P0SEL &= ~0X40;  
        ANL     0xf3,#0xbf
//   13     P0DIR &= ~0X40;   
        ANL     0xfd,#0xbf
//   14     P0INP &= ~0x40;    
        ANL     0x8f,#0xbf
//   15 }
        LJMP    ?BRET
        CFI EndBlock cfiBlock1
        REQUIRE P0SEL
        REQUIRE P0DIR
        REQUIRE P0INP
//   16 

        RSEG BANKED_CODE:CODE:NOROOT(0)
//   17 void InitFire()     
InitFire:
        CFI Block cfiBlock2 Using cfiCommon0
        CFI Function InitFire
        CODE
//   18 {
        ; Saved register size: 0
        ; Auto size: 0
//   19     P1SEL &= ~0X04;    
        ANL     0xf4,#0xfb
//   20     P1DIR &= ~0X04;    
        ANL     0xfe,#0xfb
//   21     P1INP &= ~0x04; 
        ANL     0xf6,#0xfb
//   22 }
        LJMP    ?BRET
        CFI EndBlock cfiBlock2
        REQUIRE P1SEL
        REQUIRE P1DIR
        REQUIRE P1INP
//   23 

        RSEG BANKED_CODE:CODE:NOROOT(0)
//   24 void InitMan()
InitMan:
        CFI Block cfiBlock3 Using cfiCommon0
        CFI Function InitMan
        CODE
//   25 {
        ; Saved register size: 0
        ; Auto size: 0
//   26     P1SEL &= ~0X40;    
        ANL     0xf4,#0xbf
//   27     P1DIR &= ~0X40;    
        ANL     0xfe,#0xbf
//   28     P1INP &= ~0x40; 
        ANL     0xf6,#0xbf
//   29 }  
        LJMP    ?BRET
        CFI EndBlock cfiBlock3
        REQUIRE P1SEL
        REQUIRE P1DIR
        REQUIRE P1INP

        RSEG BANK_RELAYS:CODE:REORDER:NOROOT(0)
??InitGas?relay:
        LCALL   ?BDISPATCH
        DATA
        DC24    InitGas

        RSEG BANK_RELAYS:CODE:REORDER:NOROOT(0)
??InitRain?relay:
        LCALL   ?BDISPATCH
        DATA
        DC24    InitRain

        RSEG BANK_RELAYS:CODE:REORDER:NOROOT(0)
??InitFire?relay:
        LCALL   ?BDISPATCH
        DATA
        DC24    InitFire

        RSEG BANK_RELAYS:CODE:REORDER:NOROOT(0)
??InitMan?relay:
        LCALL   ?BDISPATCH
        DATA
        DC24    InitMan

        END
// 
// 48 bytes in segment BANKED_CODE
// 24 bytes in segment BANK_RELAYS
//  6 bytes in segment SFR_AN
// 
// 72 bytes of CODE memory
//  0 bytes of DATA memory (+ 6 bytes shared)
//
//Errors: none
//Warnings: none
