///////////////////////////////////////////////////////////////////////////////
//                                                                            /
// IAR C/C++ Compiler V8.10.1.10194/W32 for 8051        30/May/2016  20:46:50 /
// Copyright 2004-2011 IAR Systems AB.                                        /
//                                                                            /
//    Core               =  plain                                             /
//    Code model         =  banked                                            /
//    Data model         =  large                                             /
//    Calling convention =  xdata reentrant                                   /
//    Constant location  =  data_rom                                          /
//    Dptr setup         =  1,16                                              /
//    Source file        =  E:\www\zigbee_for_smarthome\Projects\zstack\Sampl /
//                          es\SampleApp\Source\StepMotor.c                   /
//    Command line       =  -f E:\www\zigbee_for_smarthome\Projects\zstack\Sa /
//                          mples\SampleApp\CC2530DB\..\..\..\Tools\CC2530DB\ /
//                          f8wEndev.cfg (-DCPU32MHZ -DROOT=__near_func       /
//                          -DMAC_CFG_TX_DATA_MAX=3 -DMAC_CFG_TX_MAX=6        /
//                          -DMAC_CFG_RX_MAX=3) -f E:\www\zigbee_for_smarthom /
//                          e\Projects\zstack\Samples\SampleApp\CC2530DB\..\. /
//                          .\..\Tools\CC2530DB\f8wConfig.cfg (-DZIGBEEPRO    /
//                          -DSECURE=0 -DZG_SECURE_DYNAMIC=0 -DREFLECTOR      /
//                          -DDEFAULT_CHANLIST=0x00000800                     /
//                          -DZDAPP_CONFIG_PAN_ID=0xFF00                      /
//                          -DNWK_START_DELAY=100 -DEXTENDED_JOINING_RANDOM_M /
//                          ASK=0x007F -DBEACON_REQUEST_DELAY=100             /
//                          -DBEACON_REQ_DELAY_MASK=0x00FF                    /
//                          -DLINK_STATUS_JITTER_MASK=0x007F                  /
//                          -DROUTE_EXPIRY_TIME=30 -DAPSC_ACK_WAIT_DURATION_P /
//                          OLLED=3000 -DNWK_INDIRECT_MSG_TIMEOUT=7           /
//                          -DMAX_RREQ_ENTRIES=8 -DAPSC_MAX_FRAME_RETRIES=3   /
//                          -DNWK_MAX_DATA_RETRIES=2                          /
//                          -DMAX_POLL_FAILURE_RETRIES=2 -DMAX_BCAST=9        /
//                          -DAPS_MAX_GROUPS=16 -DMAX_RTG_ENTRIES=40          /
//                          -DNWK_MAX_BINDING_ENTRIES=4                       /
//                          -DMAX_BINDING_CLUSTER_IDS=4                       /
//                          "-DDEFAULT_KEY={0x01, 0x03, 0x05, 0x07, 0x09,     /
//                          0x0B, 0x0D, 0x0F, 0x00, 0x02, 0x04, 0x06, 0x08,   /
//                          0x0A, 0x0C, 0x0D}" -DMAC_MAX_FRAME_SIZE=116       /
//                          -DZDNWKMGR_MIN_TRANSMISSIONS=20 "-DCONST=const    /
//                          __code" -DGENERIC=__generic                       /
//                          -DRFD_RCVC_ALWAYS_ON=FALSE -DPOLL_RATE=1000       /
//                          -DQUEUED_POLL_RATE=100 -DRESPONSE_POLL_RATE=100)  /
//                          -DREJOIN_POLL_RATE=440 E:\www\zigbee_for_smarthom /
//                          e\Projects\zstack\Samples\SampleApp\Source\StepMo /
//                          tor.c -D NWK_AUTO_POLL -D ZTOOL_P1 -D xMT_TASK    /
//                          -D xMT_SYS_FUNC -D xMT_ZDO_FUNC -D                /
//                          LCD_SUPPORTED=DEBUG -lC                           /
//                          E:\www\zigbee_for_smarthome\Projects\zstack\Sampl /
//                          es\SampleApp\CC2530DB\EndDeviceEB\List\ -lA       /
//                          E:\www\zigbee_for_smarthome\Projects\zstack\Sampl /
//                          es\SampleApp\CC2530DB\EndDeviceEB\List\           /
//                          --diag_suppress Pe001,Pa010 -o                    /
//                          E:\www\zigbee_for_smarthome\Projects\zstack\Sampl /
//                          es\SampleApp\CC2530DB\EndDeviceEB\Obj\ -e         /
//                          --no_code_motion --debug --core=plain             /
//                          --dptr=16,1 --data_model=large                    /
//                          --code_model=banked --calling_convention=xdata_re /
//                          entrant --place_constants=data_rom                /
//                          --nr_virtual_regs 16 -I                           /
//                          E:\www\zigbee_for_smarthome\Projects\zstack\Sampl /
//                          es\SampleApp\CC2530DB\ -I                         /
//                          E:\www\zigbee_for_smarthome\Projects\zstack\Sampl /
//                          es\SampleApp\CC2530DB\..\Source\ -I               /
//                          E:\www\zigbee_for_smarthome\Projects\zstack\Sampl /
//                          es\SampleApp\CC2530DB\..\..\..\ZMain\TI2530DB\    /
//                          -I E:\www\zigbee_for_smarthome\Projects\zstack\Sa /
//                          mples\SampleApp\CC2530DB\..\..\..\..\..\Component /
//                          s\hal\include\ -I E:\www\zigbee_for_smarthome\Pro /
//                          jects\zstack\Samples\SampleApp\CC2530DB\..\..\..\ /
//                          ..\..\Components\hal\target\CC2530EB\ -I          /
//                          E:\www\zigbee_for_smarthome\Projects\zstack\Sampl /
//                          es\SampleApp\CC2530DB\..\..\..\..\..\Components\m /
//                          ac\include\ -I E:\www\zigbee_for_smarthome\Projec /
//                          ts\zstack\Samples\SampleApp\CC2530DB\..\..\..\..\ /
//                          ..\Components\mac\high_level\ -I                  /
//                          E:\www\zigbee_for_smarthome\Projects\zstack\Sampl /
//                          es\SampleApp\CC2530DB\..\..\..\..\..\Components\m /
//                          ac\low_level\srf04\ -I E:\www\zigbee_for_smarthom /
//                          e\Projects\zstack\Samples\SampleApp\CC2530DB\..\. /
//                          .\..\..\..\Components\mac\low_level\srf04\single_ /
//                          chip\ -I E:\www\zigbee_for_smarthome\Projects\zst /
//                          ack\Samples\SampleApp\CC2530DB\..\..\..\..\..\Com /
//                          ponents\mt\ -I E:\www\zigbee_for_smarthome\Projec /
//                          ts\zstack\Samples\SampleApp\CC2530DB\..\..\..\..\ /
//                          ..\Components\osal\include\ -I                    /
//                          E:\www\zigbee_for_smarthome\Projects\zstack\Sampl /
//                          es\SampleApp\CC2530DB\..\..\..\..\..\Components\s /
//                          ervices\saddr\ -I E:\www\zigbee_for_smarthome\Pro /
//                          jects\zstack\Samples\SampleApp\CC2530DB\..\..\..\ /
//                          ..\..\Components\services\sdata\ -I               /
//                          E:\www\zigbee_for_smarthome\Projects\zstack\Sampl /
//                          es\SampleApp\CC2530DB\..\..\..\..\..\Components\s /
//                          tack\af\ -I E:\www\zigbee_for_smarthome\Projects\ /
//                          zstack\Samples\SampleApp\CC2530DB\..\..\..\..\..\ /
//                          Components\stack\nwk\ -I                          /
//                          E:\www\zigbee_for_smarthome\Projects\zstack\Sampl /
//                          es\SampleApp\CC2530DB\..\..\..\..\..\Components\s /
//                          tack\sapi\ -I E:\www\zigbee_for_smarthome\Project /
//                          s\zstack\Samples\SampleApp\CC2530DB\..\..\..\..\. /
//                          .\Components\stack\sec\ -I                        /
//                          E:\www\zigbee_for_smarthome\Projects\zstack\Sampl /
//                          es\SampleApp\CC2530DB\..\..\..\..\..\Components\s /
//                          tack\sys\ -I E:\www\zigbee_for_smarthome\Projects /
//                          \zstack\Samples\SampleApp\CC2530DB\..\..\..\..\.. /
//                          \Components\stack\zdo\ -I                         /
//                          E:\www\zigbee_for_smarthome\Projects\zstack\Sampl /
//                          es\SampleApp\CC2530DB\..\..\..\..\..\Components\z /
//                          mac\ -I E:\www\zigbee_for_smarthome\Projects\zsta /
//                          ck\Samples\SampleApp\CC2530DB\..\..\..\..\..\Comp /
//                          onents\zmac\f8w\ -Ohz                             /
//    List file          =  E:\www\zigbee_for_smarthome\Projects\zstack\Sampl /
//                          es\SampleApp\CC2530DB\EndDeviceEB\List\StepMotor. /
//                          s51                                               /
//                                                                            /
//                                                                            /
///////////////////////////////////////////////////////////////////////////////

        NAME StepMotor

        RTMODEL "__SystemLibrary", "CLib"
        RTMODEL "__calling_convention", "xdata_reentrant"
        RTMODEL "__code_model", "banked"
        RTMODEL "__core", "plain"
        RTMODEL "__data_model", "large"
        RTMODEL "__dptr_size", "16"
        RTMODEL "__extended_stack", "disabled"
        RTMODEL "__location_for_constants", "data"
        RTMODEL "__number_of_dptrs", "1"
        RTMODEL "__rt_version", "1"

        RSEG DOVERLAY:DATA:NOROOT(0)
        RSEG IOVERLAY:IDATA:NOROOT(0)
        RSEG ISTACK:IDATA:NOROOT(0)
        RSEG PSTACK:XDATA:NOROOT(0)
        RSEG XSTACK:XDATA:NOROOT(0)

        EXTERN ?BANKED_ENTER_XDATA
        EXTERN ?BANKED_LEAVE_XDATA
        EXTERN ?BDISPATCH
        EXTERN ?BRET
        EXTERN ?US_SWITCH_DENSE
        EXTERN ?V0

        PUBLIC ??StepMotorInit?relay
        FUNCTION ??StepMotorInit?relay,0203H
        PUBLIC ??StepMotorTurn?relay
        FUNCTION ??StepMotorTurn?relay,0203H
        PUBWEAK P1DIR
        PUBWEAK P1INP
        PUBLIC StepMotorInit
        FUNCTION StepMotorInit,0203H
        ARGFRAME XSTACK, 0, STACK
        PUBLIC StepMotorTurn
        FUNCTION StepMotorTurn,080203H
        ARGFRAME XSTACK, 0, STACK
        LOCFRAME XSTACK, 10, STACK
        PUBWEAK _A_P1
        
        CFI Names cfiNames0
        CFI StackFrame CFA_SP SP IDATA
        CFI StackFrame CFA_PSP16 PSP16 XDATA
        CFI StackFrame CFA_XSP16 XSP16 XDATA
        CFI StaticOverlayFrame CFA_IOVERLAY IOVERLAY
        CFI StaticOverlayFrame CFA_DOVERLAY DOVERLAY
        CFI Resource `PSW.CY`:1, `B.BR0`:1, `B.BR1`:1, `B.BR2`:1, `B.BR3`:1
        CFI Resource `B.BR4`:1, `B.BR5`:1, `B.BR6`:1, `B.BR7`:1, `VB.BR8`:1
        CFI Resource `VB.BR9`:1, `VB.BR10`:1, `VB.BR11`:1, `VB.BR12`:1
        CFI Resource `VB.BR13`:1, `VB.BR14`:1, `VB.BR15`:1, VB:8, B:8, A:8
        CFI Resource PSW:8, DPL0:8, DPH0:8, R0:8, R1:8, R2:8, R3:8, R4:8, R5:8
        CFI Resource R6:8, R7:8, V0:8, V1:8, V2:8, V3:8, V4:8, V5:8, V6:8, V7:8
        CFI Resource V8:8, V9:8, V10:8, V11:8, V12:8, V13:8, V14:8, V15:8, SP:8
        CFI Resource PSPH:8, PSPL:8, PSP16:16, XSPH:8, XSPL:8, XSP16:16
        CFI VirtualResource ?RET:24
        CFI Resource ?BRET_EXT:8
        CFI VirtualResource ?RET_HIGH:8, ?RET_LOW:8
        CFI ResourceParts PSP16 PSPH, PSPL
        CFI ResourceParts XSP16 XSPH, XSPL
        CFI ResourceParts ?RET ?BRET_EXT, ?RET_HIGH, ?RET_LOW
        CFI EndNames cfiNames0
        
        CFI Common cfiCommon0 Using cfiNames0
        CFI CodeAlign 1
        CFI DataAlign -1
        CFI ReturnAddress ?RET CODE
        CFI CFA_DOVERLAY Used
        CFI CFA_IOVERLAY Used
        CFI CFA_SP SP+-3
        CFI CFA_PSP16 PSP16+0
        CFI CFA_XSP16 XSP16+0
        CFI `PSW.CY` SameValue
        CFI `B.BR0` SameValue
        CFI `B.BR1` SameValue
        CFI `B.BR2` SameValue
        CFI `B.BR3` SameValue
        CFI `B.BR4` SameValue
        CFI `B.BR5` SameValue
        CFI `B.BR6` SameValue
        CFI `B.BR7` SameValue
        CFI `VB.BR8` SameValue
        CFI `VB.BR9` SameValue
        CFI `VB.BR10` SameValue
        CFI `VB.BR11` SameValue
        CFI `VB.BR12` SameValue
        CFI `VB.BR13` SameValue
        CFI `VB.BR14` SameValue
        CFI `VB.BR15` SameValue
        CFI VB SameValue
        CFI B Undefined
        CFI A Undefined
        CFI PSW SameValue
        CFI DPL0 SameValue
        CFI DPH0 SameValue
        CFI R0 Undefined
        CFI R1 Undefined
        CFI R2 Undefined
        CFI R3 Undefined
        CFI R4 Undefined
        CFI R5 Undefined
        CFI R6 SameValue
        CFI R7 SameValue
        CFI V0 SameValue
        CFI V1 SameValue
        CFI V2 SameValue
        CFI V3 SameValue
        CFI V4 SameValue
        CFI V5 SameValue
        CFI V6 SameValue
        CFI V7 SameValue
        CFI V8 SameValue
        CFI V9 SameValue
        CFI V10 SameValue
        CFI V11 SameValue
        CFI V12 SameValue
        CFI V13 SameValue
        CFI V14 SameValue
        CFI V15 SameValue
        CFI PSPH Undefined
        CFI PSPL Undefined
        CFI XSPH Undefined
        CFI XSPL Undefined
        CFI ?RET Concat
        CFI ?BRET_EXT Frame(CFA_SP, 3)
        CFI ?RET_HIGH Frame(CFA_SP, 2)
        CFI ?RET_LOW Frame(CFA_SP, 1)
        CFI EndCommon cfiCommon0
        
StepMotorInit       SYMBOL "StepMotorInit"
??StepMotorInit?relay SYMBOL "?relay", StepMotorInit
StepMotorTurn       SYMBOL "StepMotorTurn"
??StepMotorTurn?relay SYMBOL "?relay", StepMotorTurn

// E:\www\zigbee_for_smarthome\Projects\zstack\Samples\SampleApp\Source\StepMotor.c
//    1 #include "StepMotor.h"

        ASEGN SFR_AN:DATA:NOROOT,090H
// union <unnamed> volatile __sfr _A_P1
_A_P1:
        DATA8
        DS 1

        ASEGN SFR_AN:DATA:NOROOT,0f6H
// unsigned char volatile __sfr P1INP
P1INP:
        DATA8
        DS 1

        ASEGN SFR_AN:DATA:NOROOT,0feH
// unsigned char volatile __sfr P1DIR
P1DIR:
        DATA8
        DS 1
//    2 

        RSEG BANKED_CODE:CODE:NOROOT(0)
//    3 void StepMotorInit(void)
StepMotorInit:
        CFI Block cfiBlock0 Using cfiCommon0
        CFI Function StepMotorInit
        CODE
//    4 {
        ; Saved register size: 0
        ; Auto size: 0
//    5   P1DIR |= 0x04;     //P1_2定义为输出  1.2          0000 0100
        ORL     0xfe,#0x4
//    6   P1INP |= 0X04;     //打开下拉        1.3          0000 1000
        ORL     0xf6,#0x4
//    7   P1DIR |= 0x08;     //P1_3定义为输出  1.4          0001 0000
        ORL     0xfe,#0x8
//    8   P1INP |= 0X08;     //打开下拉        1.5          0010 0000
        ORL     0xf6,#0x8
//    9   P1DIR |= 0x10;     //P1_4定义为输出
        ORL     0xfe,#0x10
//   10   P1INP |= 0X10;     //打开下拉  
        ORL     0xf6,#0x10
//   11   P1DIR |= 0x02;     //P1_5定义为输出
        ORL     0xfe,#0x2
//   12   P1INP |= 0X02;     //打开下拉  
        ORL     0xf6,#0x2
//   13 }
        LJMP    ?BRET
        CFI EndBlock cfiBlock0
        REQUIRE P1DIR
        REQUIRE P1INP
//   14 

        RSEG BANKED_CODE:CODE:NOROOT(0)
//   15 void StepMotorTurn(int mode,int couter)
StepMotorTurn:
        CFI Block cfiBlock1 Using cfiCommon0
        CFI Function StepMotorTurn
        CODE
//   16 {
        MOV     A,#-0xa
        LCALL   ?BANKED_ENTER_XDATA
        CFI DPH0 load(1, XDATA, add(CFA_XSP16, literal(-1)))
        CFI DPL0 load(1, XDATA, add(CFA_XSP16, literal(-2)))
        CFI ?BRET_EXT load(1, XDATA, add(CFA_XSP16, literal(-3)))
        CFI ?RET_HIGH load(1, XDATA, add(CFA_XSP16, literal(-4)))
        CFI ?RET_LOW load(1, XDATA, add(CFA_XSP16, literal(-5)))
        CFI R7 load(1, XDATA, add(CFA_XSP16, literal(-6)))
        CFI V1 load(1, XDATA, add(CFA_XSP16, literal(-7)))
        CFI V0 load(1, XDATA, add(CFA_XSP16, literal(-8)))
        CFI VB load(1, XDATA, add(CFA_XSP16, literal(-9)))
        CFI R6 load(1, XDATA, add(CFA_XSP16, literal(-10)))
        CFI CFA_SP SP+0
        CFI CFA_XSP16 add(XSP16, 10)
        ; Saved register size: 10
        ; Auto size: 0
//   17     switch(mode)
        MOV     ?V0 + 0,R2
        MOV     ?V0 + 1,R3
        MOV     R0,#?V0 + 0
        LCALL   ?US_SWITCH_DENSE
`?<Jumptable for StepMotorTurn>_0`:
        DATA
        DATA16
        DATA
        DATA16
        DW        0
        DATA
        DATA8
        DATA
        DATA8
        DB        2
        DATA
        DATA16
        DATA
        DATA16
        DW        ??StepMotorTurn_0
        DATA
        DATA16
        DATA
        DATA16
        DW        ??StepMotorTurn_1
        DATA
        DATA16
        DATA
        DATA16
        DW        ??StepMotorTurn_2
        DATA
        DATA16
        DATA
        DATA16
        DW        ??StepMotorTurn_3
        CODE
//   18     {
//   19         case 2:
//   20         switch(couter)
??StepMotorTurn_3:
        MOV     ?V0 + 0,R4
        MOV     ?V0 + 1,R5
        MOV     R0,#?V0 + 0
        LCALL   ?US_SWITCH_DENSE
`?<Jumptable for StepMotorTurn>_1`:
        DATA
        DATA16
        DATA
        DATA16
        DW        0
        DATA
        DATA8
        DATA
        DATA8
        DB        3
        DATA
        DATA16
        DATA
        DATA16
        DW        ??StepMotorTurn_0
        DATA
        DATA16
        DATA
        DATA16
        DW        ??StepMotorTurn_4
        DATA
        DATA16
        DATA
        DATA16
        DW        ??StepMotorTurn_5
        DATA
        DATA16
        DATA
        DATA16
        DW        ??StepMotorTurn_6
        DATA
        DATA16
        DATA
        DATA16
        DW        ??StepMotorTurn_7
        CODE
//   21         {
//   22             case 0:
//   23             IN1 = 1;
??StepMotorTurn_4:
        SETB    0x90.2
//   24             IN2 = 1;
        SETB    0x90.3
//   25             IN3 = 0;
        CLR     0x90.4
//   26             IN4 = 0;
??StepMotorTurn_8:
        CLR     0x90.1
//   27             break;
        SJMP    ??StepMotorTurn_0
//   28 
//   29             case 1:
//   30             IN1 = 0;
??StepMotorTurn_5:
        CLR     0x90.2
//   31             IN2 = 1;
        SETB    0x90.3
//   32             IN3 = 1;
        SETB    0x90.4
//   33             IN4 = 0;
        SJMP    ??StepMotorTurn_8
//   34             break;
//   35 
//   36             case 2:
//   37             IN1 = 0;
??StepMotorTurn_6:
        CLR     0x90.2
//   38             IN2 = 0;
        CLR     0x90.3
//   39             IN3 = 1;
        SJMP    ??StepMotorTurn_9
//   40             IN4 = 1;
//   41             break;
//   42 
//   43             case 3:
//   44             IN1 = 1;
//   45             IN2 = 0;
//   46             IN3 = 0;
//   47             IN4 = 1;
//   48             break;
//   49         }
//   50         break;
//   51 
//   52         case 1:
//   53         switch(couter)
??StepMotorTurn_2:
        MOV     ?V0 + 0,R4
        MOV     ?V0 + 1,R5
        MOV     R0,#?V0 + 0
        LCALL   ?US_SWITCH_DENSE
`?<Jumptable for StepMotorTurn>_2`:
        DATA
        DATA16
        DATA
        DATA16
        DW        0
        DATA
        DATA8
        DATA
        DATA8
        DB        3
        DATA
        DATA16
        DATA
        DATA16
        DW        ??StepMotorTurn_0
        DATA
        DATA16
        DATA
        DATA16
        DW        ??StepMotorTurn_7
        DATA
        DATA16
        DATA
        DATA16
        DW        ??StepMotorTurn_6
        DATA
        DATA16
        DATA
        DATA16
        DW        ??StepMotorTurn_5
        DATA
        DATA16
        DATA
        DATA16
        DW        ??StepMotorTurn_4
        CODE
??StepMotorTurn_7:
        SETB    0x90.2
        CLR     0x90.3
        CLR     0x90.4
        SJMP    ??StepMotorTurn_10
//   54         {
//   55             case 0:
//   56             IN1 = 1;
//   57             IN2 = 0;
//   58             IN3 = 0;
//   59             IN4 = 1;
//   60             break;
//   61 
//   62             case 1:
//   63             IN1 = 0;
//   64             IN2 = 0;
//   65             IN3 = 1;
//   66             IN4 = 1;
//   67             break;
//   68 
//   69             case 2:
//   70              IN1 = 0;
//   71             IN2 = 1;
//   72             IN3 = 1;
//   73             IN4 = 0;
//   74             break;
//   75 
//   76             case 3:
//   77             IN1 = 1;
//   78             IN2 = 1;
//   79             IN3 = 0;
//   80             IN4 = 0;
//   81             break;
//   82         }
//   83         break;
//   84 
//   85         case 0:
//   86         IN1 = 1;
??StepMotorTurn_1:
        SETB    0x90.2
//   87         IN2 = 1;
        SETB    0x90.3
//   88         IN3 = 1;
??StepMotorTurn_9:
        SETB    0x90.4
//   89         IN4 = 1;
??StepMotorTurn_10:
        SETB    0x90.1
//   90         break;
//   91 
//   92     }
//   93 }
??StepMotorTurn_0:
        MOV     R7,#0x2
        LJMP    ?BANKED_LEAVE_XDATA
        CFI EndBlock cfiBlock1
        REQUIRE _A_P1

        RSEG BANK_RELAYS:CODE:REORDER:NOROOT(0)
??StepMotorInit?relay:
        LCALL   ?BDISPATCH
        DATA
        DC24    StepMotorInit

        RSEG BANK_RELAYS:CODE:REORDER:NOROOT(0)
??StepMotorTurn?relay:
        LCALL   ?BDISPATCH
        DATA
        DC24    StepMotorTurn

        END
// 
// 141 bytes in segment BANKED_CODE
//  12 bytes in segment BANK_RELAYS
//   3 bytes in segment SFR_AN
// 
// 153 bytes of CODE memory
//   0 bytes of DATA memory (+ 3 bytes shared)
//
//Errors: none
//Warnings: 1
