///////////////////////////////////////////////////////////////////////////////
//                                                                            /
// IAR C/C++ Compiler V8.10.1.10194/W32 for 8051        30/May/2016  21:21:28 /
// Copyright 2004-2011 IAR Systems AB.                                        /
//                                                                            /
//    Core               =  plain                                             /
//    Code model         =  banked                                            /
//    Data model         =  large                                             /
//    Calling convention =  xdata reentrant                                   /
//    Constant location  =  data_rom                                          /
//    Dptr setup         =  1,16                                              /
//    Source file        =  E:\www\zigbee_for_smarthome\Projects\zstack\Sampl /
//                          es\SampleApp\Source\timer.c                       /
//    Command line       =  -f E:\www\zigbee_for_smarthome\Projects\zstack\Sa /
//                          mples\SampleApp\CC2530DB\..\..\..\Tools\CC2530DB\ /
//                          f8wEndev.cfg (-DCPU32MHZ -DROOT=__near_func       /
//                          -DMAC_CFG_TX_DATA_MAX=3 -DMAC_CFG_TX_MAX=6        /
//                          -DMAC_CFG_RX_MAX=3) -f E:\www\zigbee_for_smarthom /
//                          e\Projects\zstack\Samples\SampleApp\CC2530DB\..\. /
//                          .\..\Tools\CC2530DB\f8wConfig.cfg (-DZIGBEEPRO    /
//                          -DSECURE=0 -DZG_SECURE_DYNAMIC=0 -DREFLECTOR      /
//                          -DDEFAULT_CHANLIST=0x00000800                     /
//                          -DZDAPP_CONFIG_PAN_ID=0xFF00                      /
//                          -DNWK_START_DELAY=100 -DEXTENDED_JOINING_RANDOM_M /
//                          ASK=0x007F -DBEACON_REQUEST_DELAY=100             /
//                          -DBEACON_REQ_DELAY_MASK=0x00FF                    /
//                          -DLINK_STATUS_JITTER_MASK=0x007F                  /
//                          -DROUTE_EXPIRY_TIME=30 -DAPSC_ACK_WAIT_DURATION_P /
//                          OLLED=3000 -DNWK_INDIRECT_MSG_TIMEOUT=7           /
//                          -DMAX_RREQ_ENTRIES=8 -DAPSC_MAX_FRAME_RETRIES=3   /
//                          -DNWK_MAX_DATA_RETRIES=2                          /
//                          -DMAX_POLL_FAILURE_RETRIES=2 -DMAX_BCAST=9        /
//                          -DAPS_MAX_GROUPS=16 -DMAX_RTG_ENTRIES=40          /
//                          -DNWK_MAX_BINDING_ENTRIES=4                       /
//                          -DMAX_BINDING_CLUSTER_IDS=4                       /
//                          "-DDEFAULT_KEY={0x01, 0x03, 0x05, 0x07, 0x09,     /
//                          0x0B, 0x0D, 0x0F, 0x00, 0x02, 0x04, 0x06, 0x08,   /
//                          0x0A, 0x0C, 0x0D}" -DMAC_MAX_FRAME_SIZE=116       /
//                          -DZDNWKMGR_MIN_TRANSMISSIONS=20 "-DCONST=const    /
//                          __code" -DGENERIC=__generic                       /
//                          -DRFD_RCVC_ALWAYS_ON=FALSE -DPOLL_RATE=1000       /
//                          -DQUEUED_POLL_RATE=100 -DRESPONSE_POLL_RATE=100)  /
//                          -DREJOIN_POLL_RATE=440 E:\www\zigbee_for_smarthom /
//                          e\Projects\zstack\Samples\SampleApp\Source\timer. /
//                          c -D NWK_AUTO_POLL -D ZTOOL_P1 -D xMT_TASK -D     /
//                          xMT_SYS_FUNC -D xMT_ZDO_FUNC -D                   /
//                          LCD_SUPPORTED=DEBUG -lC                           /
//                          E:\www\zigbee_for_smarthome\Projects\zstack\Sampl /
//                          es\SampleApp\CC2530DB\EndDeviceEB\List\ -lA       /
//                          E:\www\zigbee_for_smarthome\Projects\zstack\Sampl /
//                          es\SampleApp\CC2530DB\EndDeviceEB\List\           /
//                          --diag_suppress Pe001,Pa010 -o                    /
//                          E:\www\zigbee_for_smarthome\Projects\zstack\Sampl /
//                          es\SampleApp\CC2530DB\EndDeviceEB\Obj\ -e         /
//                          --no_code_motion --debug --core=plain             /
//                          --dptr=16,1 --data_model=large                    /
//                          --code_model=banked --calling_convention=xdata_re /
//                          entrant --place_constants=data_rom                /
//                          --nr_virtual_regs 16 -I                           /
//                          E:\www\zigbee_for_smarthome\Projects\zstack\Sampl /
//                          es\SampleApp\CC2530DB\ -I                         /
//                          E:\www\zigbee_for_smarthome\Projects\zstack\Sampl /
//                          es\SampleApp\CC2530DB\..\Source\ -I               /
//                          E:\www\zigbee_for_smarthome\Projects\zstack\Sampl /
//                          es\SampleApp\CC2530DB\..\..\..\ZMain\TI2530DB\    /
//                          -I E:\www\zigbee_for_smarthome\Projects\zstack\Sa /
//                          mples\SampleApp\CC2530DB\..\..\..\..\..\Component /
//                          s\hal\include\ -I E:\www\zigbee_for_smarthome\Pro /
//                          jects\zstack\Samples\SampleApp\CC2530DB\..\..\..\ /
//                          ..\..\Components\hal\target\CC2530EB\ -I          /
//                          E:\www\zigbee_for_smarthome\Projects\zstack\Sampl /
//                          es\SampleApp\CC2530DB\..\..\..\..\..\Components\m /
//                          ac\include\ -I E:\www\zigbee_for_smarthome\Projec /
//                          ts\zstack\Samples\SampleApp\CC2530DB\..\..\..\..\ /
//                          ..\Components\mac\high_level\ -I                  /
//                          E:\www\zigbee_for_smarthome\Projects\zstack\Sampl /
//                          es\SampleApp\CC2530DB\..\..\..\..\..\Components\m /
//                          ac\low_level\srf04\ -I E:\www\zigbee_for_smarthom /
//                          e\Projects\zstack\Samples\SampleApp\CC2530DB\..\. /
//                          .\..\..\..\Components\mac\low_level\srf04\single_ /
//                          chip\ -I E:\www\zigbee_for_smarthome\Projects\zst /
//                          ack\Samples\SampleApp\CC2530DB\..\..\..\..\..\Com /
//                          ponents\mt\ -I E:\www\zigbee_for_smarthome\Projec /
//                          ts\zstack\Samples\SampleApp\CC2530DB\..\..\..\..\ /
//                          ..\Components\osal\include\ -I                    /
//                          E:\www\zigbee_for_smarthome\Projects\zstack\Sampl /
//                          es\SampleApp\CC2530DB\..\..\..\..\..\Components\s /
//                          ervices\saddr\ -I E:\www\zigbee_for_smarthome\Pro /
//                          jects\zstack\Samples\SampleApp\CC2530DB\..\..\..\ /
//                          ..\..\Components\services\sdata\ -I               /
//                          E:\www\zigbee_for_smarthome\Projects\zstack\Sampl /
//                          es\SampleApp\CC2530DB\..\..\..\..\..\Components\s /
//                          tack\af\ -I E:\www\zigbee_for_smarthome\Projects\ /
//                          zstack\Samples\SampleApp\CC2530DB\..\..\..\..\..\ /
//                          Components\stack\nwk\ -I                          /
//                          E:\www\zigbee_for_smarthome\Projects\zstack\Sampl /
//                          es\SampleApp\CC2530DB\..\..\..\..\..\Components\s /
//                          tack\sapi\ -I E:\www\zigbee_for_smarthome\Project /
//                          s\zstack\Samples\SampleApp\CC2530DB\..\..\..\..\. /
//                          .\Components\stack\sec\ -I                        /
//                          E:\www\zigbee_for_smarthome\Projects\zstack\Sampl /
//                          es\SampleApp\CC2530DB\..\..\..\..\..\Components\s /
//                          tack\sys\ -I E:\www\zigbee_for_smarthome\Projects /
//                          \zstack\Samples\SampleApp\CC2530DB\..\..\..\..\.. /
//                          \Components\stack\zdo\ -I                         /
//                          E:\www\zigbee_for_smarthome\Projects\zstack\Sampl /
//                          es\SampleApp\CC2530DB\..\..\..\..\..\Components\z /
//                          mac\ -I E:\www\zigbee_for_smarthome\Projects\zsta /
//                          ck\Samples\SampleApp\CC2530DB\..\..\..\..\..\Comp /
//                          onents\zmac\f8w\ -Ohz                             /
//    List file          =  E:\www\zigbee_for_smarthome\Projects\zstack\Sampl /
//                          es\SampleApp\CC2530DB\EndDeviceEB\List\timer.s51  /
//                                                                            /
//                                                                            /
///////////////////////////////////////////////////////////////////////////////

        NAME timer

        RTMODEL "__SystemLibrary", "CLib"
        RTMODEL "__calling_convention", "xdata_reentrant"
        RTMODEL "__code_model", "banked"
        RTMODEL "__core", "plain"
        RTMODEL "__data_model", "large"
        RTMODEL "__dptr_size", "16"
        RTMODEL "__extended_stack", "disabled"
        RTMODEL "__location_for_constants", "data"
        RTMODEL "__number_of_dptrs", "1"
        RTMODEL "__rt_version", "1"

        RSEG DOVERLAY:DATA:NOROOT(0)
        RSEG IOVERLAY:IDATA:NOROOT(0)
        RSEG ISTACK:IDATA:NOROOT(0)
        RSEG PSTACK:XDATA:NOROOT(0)
        RSEG XSTACK:XDATA:NOROOT(0)

        EXTERN ?BDISPATCH
        EXTERN ?BRET
        EXTERN __INIT_XDATA_I
        EXTERN __INIT_XDATA_Z

        PUBLIC ??InitT3?relay
        FUNCTION ??InitT3?relay,0203H
        PUBWEAK `??T3_ISR??INTVEC 91`
        PUBLIC ??TimerInit?relay
        FUNCTION ??TimerInit?relay,0203H
        PUBLIC InitT3
        FUNCTION InitT3,0201H
        ARGFRAME XSTACK, 0, STACK
        ARGFRAME IOVERLAY, 0, STATIC
        ARGFRAME DOVERLAY, 0, STATIC
        PUBLIC StepMotorTurnMode
        PUBWEAK T3CTL
        PUBLIC T3_ISR
        FUNCTION T3_ISR,0233H
        ARGFRAME XSTACK, 0, STACK
        LOCFRAME ISTACK, 4, STACK
        PUBLIC TimerInit
        FUNCTION TimerInit,021201H
        ARGFRAME XSTACK, 0, STACK
        LOCFRAME ISTACK, 2, STACK
        PUBWEAK _A_IEN0
        PUBWEAK _A_IEN1
        PUBWEAK _A_IRCON
        
        CFI Names cfiNames0
        CFI StackFrame CFA_SP SP IDATA
        CFI StackFrame CFA_PSP16 PSP16 XDATA
        CFI StackFrame CFA_XSP16 XSP16 XDATA
        CFI StaticOverlayFrame CFA_IOVERLAY IOVERLAY
        CFI StaticOverlayFrame CFA_DOVERLAY DOVERLAY
        CFI Resource `PSW.CY`:1, `B.BR0`:1, `B.BR1`:1, `B.BR2`:1, `B.BR3`:1
        CFI Resource `B.BR4`:1, `B.BR5`:1, `B.BR6`:1, `B.BR7`:1, `VB.BR8`:1
        CFI Resource `VB.BR9`:1, `VB.BR10`:1, `VB.BR11`:1, `VB.BR12`:1
        CFI Resource `VB.BR13`:1, `VB.BR14`:1, `VB.BR15`:1, VB:8, B:8, A:8
        CFI Resource PSW:8, DPL0:8, DPH0:8, R0:8, R1:8, R2:8, R3:8, R4:8, R5:8
        CFI Resource R6:8, R7:8, V0:8, V1:8, V2:8, V3:8, V4:8, V5:8, V6:8, V7:8
        CFI Resource V8:8, V9:8, V10:8, V11:8, V12:8, V13:8, V14:8, V15:8, SP:8
        CFI Resource PSPH:8, PSPL:8, PSP16:16, XSPH:8, XSPL:8, XSP16:16
        CFI VirtualResource ?RET:24
        CFI Resource ?BRET_EXT:8
        CFI VirtualResource ?RET_HIGH:8, ?RET_LOW:8
        CFI ResourceParts PSP16 PSPH, PSPL
        CFI ResourceParts XSP16 XSPH, XSPL
        CFI ResourceParts ?RET ?BRET_EXT, ?RET_HIGH, ?RET_LOW
        CFI EndNames cfiNames0
        
        CFI Common cfiCommon0 Using cfiNames0
        CFI CodeAlign 1
        CFI DataAlign -1
        CFI ReturnAddress ?RET CODE
        CFI CFA_DOVERLAY Used
        CFI CFA_IOVERLAY Used
        CFI CFA_SP SP+-3
        CFI CFA_PSP16 PSP16+0
        CFI CFA_XSP16 XSP16+0
        CFI `PSW.CY` SameValue
        CFI `B.BR0` SameValue
        CFI `B.BR1` SameValue
        CFI `B.BR2` SameValue
        CFI `B.BR3` SameValue
        CFI `B.BR4` SameValue
        CFI `B.BR5` SameValue
        CFI `B.BR6` SameValue
        CFI `B.BR7` SameValue
        CFI `VB.BR8` SameValue
        CFI `VB.BR9` SameValue
        CFI `VB.BR10` SameValue
        CFI `VB.BR11` SameValue
        CFI `VB.BR12` SameValue
        CFI `VB.BR13` SameValue
        CFI `VB.BR14` SameValue
        CFI `VB.BR15` SameValue
        CFI VB SameValue
        CFI B Undefined
        CFI A Undefined
        CFI PSW SameValue
        CFI DPL0 SameValue
        CFI DPH0 SameValue
        CFI R0 Undefined
        CFI R1 Undefined
        CFI R2 Undefined
        CFI R3 Undefined
        CFI R4 Undefined
        CFI R5 Undefined
        CFI R6 SameValue
        CFI R7 SameValue
        CFI V0 SameValue
        CFI V1 SameValue
        CFI V2 SameValue
        CFI V3 SameValue
        CFI V4 SameValue
        CFI V5 SameValue
        CFI V6 SameValue
        CFI V7 SameValue
        CFI V8 SameValue
        CFI V9 SameValue
        CFI V10 SameValue
        CFI V11 SameValue
        CFI V12 SameValue
        CFI V13 SameValue
        CFI V14 SameValue
        CFI V15 SameValue
        CFI PSPH Undefined
        CFI PSPL Undefined
        CFI XSPH Undefined
        CFI XSPL Undefined
        CFI ?RET Concat
        CFI ?BRET_EXT Frame(CFA_SP, 3)
        CFI ?RET_HIGH Frame(CFA_SP, 2)
        CFI ?RET_LOW Frame(CFA_SP, 1)
        CFI EndCommon cfiCommon0
        
        
        CFI Common cfiCommon1 Using cfiNames0
        CFI CodeAlign 1
        CFI DataAlign -1
        CFI ReturnAddress ?RET CODE
        CFI CFA_DOVERLAY Used
        CFI CFA_IOVERLAY Used
        CFI CFA_SP SP+-2
        CFI CFA_PSP16 PSP16+0
        CFI CFA_XSP16 XSP16+0
        CFI `PSW.CY` SameValue
        CFI `B.BR0` SameValue
        CFI `B.BR1` SameValue
        CFI `B.BR2` SameValue
        CFI `B.BR3` SameValue
        CFI `B.BR4` SameValue
        CFI `B.BR5` SameValue
        CFI `B.BR6` SameValue
        CFI `B.BR7` SameValue
        CFI `VB.BR8` SameValue
        CFI `VB.BR9` SameValue
        CFI `VB.BR10` SameValue
        CFI `VB.BR11` SameValue
        CFI `VB.BR12` SameValue
        CFI `VB.BR13` SameValue
        CFI `VB.BR14` SameValue
        CFI `VB.BR15` SameValue
        CFI VB SameValue
        CFI B SameValue
        CFI A SameValue
        CFI PSW SameValue
        CFI DPL0 SameValue
        CFI DPH0 SameValue
        CFI R0 SameValue
        CFI R1 SameValue
        CFI R2 SameValue
        CFI R3 SameValue
        CFI R4 SameValue
        CFI R5 SameValue
        CFI R6 SameValue
        CFI R7 SameValue
        CFI V0 SameValue
        CFI V1 SameValue
        CFI V2 SameValue
        CFI V3 SameValue
        CFI V4 SameValue
        CFI V5 SameValue
        CFI V6 SameValue
        CFI V7 SameValue
        CFI V8 SameValue
        CFI V9 SameValue
        CFI V10 SameValue
        CFI V11 SameValue
        CFI V12 SameValue
        CFI V13 SameValue
        CFI V14 SameValue
        CFI V15 SameValue
        CFI PSPH Undefined
        CFI PSPL Undefined
        CFI XSPH Undefined
        CFI XSPL Undefined
        CFI ?RET Concat
        CFI ?BRET_EXT SameValue
        CFI ?RET_HIGH Frame(CFA_SP, 2)
        CFI ?RET_LOW Frame(CFA_SP, 1)
        CFI EndCommon cfiCommon1
        
InitT3              SYMBOL "InitT3"
??InitT3?relay      SYMBOL "?relay", InitT3
T3_ISR              SYMBOL "T3_ISR"
`??T3_ISR??INTVEC 91` SYMBOL "??INTVEC 91", T3_ISR
TimerInit           SYMBOL "TimerInit"
??TimerInit?relay   SYMBOL "?relay", TimerInit

// E:\www\zigbee_for_smarthome\Projects\zstack\Samples\SampleApp\Source\timer.c
//    1 #include "timer.h"

        ASEGN SFR_AN:DATA:NOROOT,0a8H
// union <unnamed> volatile __sfr _A_IEN0
_A_IEN0:
        DATA8
        DS 1

        ASEGN SFR_AN:DATA:NOROOT,0b8H
// union <unnamed> volatile __sfr _A_IEN1
_A_IEN1:
        DATA8
        DS 1

        ASEGN SFR_AN:DATA:NOROOT,0c0H
// union <unnamed> volatile __sfr _A_IRCON
_A_IRCON:
        DATA8
        DS 1

        ASEGN SFR_AN:DATA:NOROOT,0cbH
// unsigned char volatile __sfr T3CTL
T3CTL:
        DATA8
        DS 1
//    2 

        RSEG XDATA_Z:XDATA:NOROOT(0)
        DATA16
//    3 static int count = 0;
count:
        DS 2
        REQUIRE __INIT_XDATA_Z

        RSEG XDATA_Z:XDATA:NOROOT(0)
        DATA16
        DS 2
        REQUIRE __INIT_XDATA_Z
//    4 static int couter = 0;

        RSEG XDATA_Z:XDATA:NOROOT(0)
        DATA16
//    5 static int v = 0;
v:
        DS 2
        REQUIRE __INIT_XDATA_Z

        RSEG XDATA_I:XDATA:NOROOT(0)
//    6 int StepMotorTurnMode = 1;
StepMotorTurnMode:
        DATA16
        DS 2
        REQUIRE `?<Initializer for StepMotorTurnMode>`
        REQUIRE __INIT_XDATA_I
//    7 

        RSEG BANKED_CODE:CODE:NOROOT(0)
//    8 void InitT3()
InitT3:
        CFI Block cfiBlock0 Using cfiCommon0
        CFI Function InitT3
        CODE
//    9 {     
        ; Saved register size: 0
        ; Auto size: 0
//   10   T3CTL |= 0x08 ;            
        ORL     0xcb,#0x8
//   11   T3IE = 1;                 
        SETB    0xb8.3
//   12   T3CTL|=0XE0;               
        ORL     0xcb,#0xe0
//   13   T3CTL &= ~0X03;            
        ANL     0xcb,#0xfc
//   14   T3CTL |=0X10;              
        ORL     0xcb,#0x10
//   15   EA = 1; 
        SETB    0xa8.7
//   16 }
        LJMP    ?BRET
        CFI EndBlock cfiBlock0
        REQUIRE T3CTL
        REQUIRE _A_IEN1
        REQUIRE _A_IEN0
//   17 

        RSEG BANKED_CODE:CODE:NOROOT(0)
//   18 void TimerInit()
TimerInit:
        CFI Block cfiBlock1 Using cfiCommon0
        CFI Function TimerInit
        CODE
//   19 {   
        FUNCALL TimerInit, InitT3
        LOCFRAME ISTACK, 2, STACK
        LOCFRAME PSTACK, 0, STACK
        LOCFRAME XSTACK, 0, STACK
        LOCFRAME IOVERLAY, 0, STATIC
        LOCFRAME DOVERLAY, 0, STATIC
        ARGFRAME ISTACK, 2, STACK
        ARGFRAME PSTACK, 0, STACK
        ARGFRAME XSTACK, 0, STACK
        ARGFRAME IOVERLAY, 0, STATIC
        ARGFRAME DOVERLAY, 0, STATIC
        PUSH    DPL
        CFI DPL0 Frame(CFA_SP, 4)
        CFI CFA_SP SP+-4
        PUSH    DPH
        CFI DPH0 Frame(CFA_SP, 5)
        CFI CFA_SP SP+-5
        ; Saved register size: 2
        ; Auto size: 0
//   20   InitT3();        
        ; Setup parameters for call to function InitT3
        LCALL   ??InitT3?relay
//   21 }
        POP     DPH
        CFI DPH0 SameValue
        CFI CFA_SP SP+-4
        POP     DPL
        CFI DPL0 SameValue
        CFI CFA_SP SP+-3
        LJMP    ?BRET
        CFI EndBlock cfiBlock1
//   22 
//   23 #pragma vector = T3_VECTOR 

        RSEG NEAR_CODE:CODE:NOROOT(0)
//   24  __interrupt void T3_ISR(void) 
T3_ISR:
        CFI Block cfiBlock2 Using cfiCommon1
        CFI Function T3_ISR
        CODE
//   25  { 
        PUSH    A
        CFI A Frame(CFA_SP, 3)
        CFI CFA_SP SP+-3
        PUSH    PSW
        CFI PSW Frame(CFA_SP, 4)
        CFI CFA_SP SP+-4
        PUSH    DPL
        CFI DPL0 Frame(CFA_SP, 5)
        CFI CFA_SP SP+-5
        PUSH    DPH
        CFI DPH0 Frame(CFA_SP, 6)
        CFI CFA_SP SP+-6
        ; Saved register size: 4
        ; Auto size: 0
//   26     IRCON = 0x00;                  
        MOV     0xc0,#0x0
//   27     if(++count>254)               
        MOV     DPTR,#count
        LCALL   ?Subroutine0
??CrossCallReturnLabel_0:
        MOV     DPTR,#count
        CLR     C
        MOVX    A,@DPTR
        SUBB    A,#-0x1
        LCALL   ?Subroutine1
??CrossCallReturnLabel_2:
        JC      ??T3_ISR_0
//   28     {          
//   29       count = 0;                   
        MOV     DPTR,#count
        CLR     A
        MOVX    @DPTR,A
        INC     DPTR
        MOVX    @DPTR,A
//   30     } 
//   31 
//   32     v++;
??T3_ISR_0:
        MOV     DPTR,#v
        LCALL   ?Subroutine0
//   33     if(v > 1)//5
??CrossCallReturnLabel_1:
        MOV     DPTR,#v
        CLR     C
        MOVX    A,@DPTR
        SUBB    A,#0x2
        LCALL   ?Subroutine1
??CrossCallReturnLabel_3:
        JC      ??T3_ISR_1
//   34         v = 0;
        MOV     DPTR,#v
        CLR     A
        MOVX    @DPTR,A
        INC     DPTR
        MOVX    @DPTR,A
//   35 
//   36     if(v == 3)
//   37     {
//   38         couter ++;
//   39         if(couter > 3)
//   40             couter = 0;
//   41         StepMotorTurn(StepMotorTurnMode,couter);
//   42     }
//   43  }
??T3_ISR_1:
        POP     DPH
        CFI DPH0 SameValue
        CFI CFA_SP SP+-5
        POP     DPL
        CFI DPL0 SameValue
        CFI CFA_SP SP+-4
        POP     PSW
        CFI PSW SameValue
        CFI CFA_SP SP+-3
        POP     A
        CFI A SameValue
        CFI CFA_SP SP+-2
        RETI
        CFI EndBlock cfiBlock2
        REQUIRE _A_IRCON

        RSEG NEAR_CODE:CODE:NOROOT(0)
?Subroutine1:
        CFI Block cfiCond3 Using cfiCommon1
        CFI NoFunction
        CFI Conditional ??CrossCallReturnLabel_2
        CFI A Frame(CFA_SP, 3)
        CFI PSW Frame(CFA_SP, 4)
        CFI DPL0 Frame(CFA_SP, 5)
        CFI DPH0 Frame(CFA_SP, 6)
        CFI CFA_SP SP+-6
        CFI Block cfiCond4 Using cfiCommon1
        CFI (cfiCond4) NoFunction
        CFI (cfiCond4) Conditional ??CrossCallReturnLabel_3
        CFI (cfiCond4) A Frame(CFA_SP, 3)
        CFI (cfiCond4) PSW Frame(CFA_SP, 4)
        CFI (cfiCond4) DPL0 Frame(CFA_SP, 5)
        CFI (cfiCond4) DPH0 Frame(CFA_SP, 6)
        CFI (cfiCond4) CFA_SP SP+-6
        CFI Block cfiPicker5 Using cfiCommon1
        CFI (cfiPicker5) NoFunction
        CFI (cfiPicker5) Picker
        INC     DPTR
        MOVX    A,@DPTR
        SUBB    A,#0x0
        MOV     C,0xD0 /* PSW */.2
        XRL     A,PSW
        RLC     A
        RET
        CFI EndBlock cfiCond3
        CFI EndBlock cfiCond4
        CFI EndBlock cfiPicker5

        RSEG NEAR_CODE:CODE:NOROOT(0)
?Subroutine0:
        CFI Block cfiCond6 Using cfiCommon1
        CFI NoFunction
        CFI Conditional ??CrossCallReturnLabel_0
        CFI A Frame(CFA_SP, 3)
        CFI PSW Frame(CFA_SP, 4)
        CFI DPL0 Frame(CFA_SP, 5)
        CFI DPH0 Frame(CFA_SP, 6)
        CFI CFA_SP SP+-6
        CFI Block cfiCond7 Using cfiCommon1
        CFI (cfiCond7) NoFunction
        CFI (cfiCond7) Conditional ??CrossCallReturnLabel_1
        CFI (cfiCond7) A Frame(CFA_SP, 3)
        CFI (cfiCond7) PSW Frame(CFA_SP, 4)
        CFI (cfiCond7) DPL0 Frame(CFA_SP, 5)
        CFI (cfiCond7) DPH0 Frame(CFA_SP, 6)
        CFI (cfiCond7) CFA_SP SP+-6
        CFI Block cfiPicker8 Using cfiCommon1
        CFI (cfiPicker8) NoFunction
        CFI (cfiPicker8) Picker
        MOVX    A,@DPTR
        ADD     A,#0x1
        MOVX    @DPTR,A
        INC     DPTR
        MOVX    A,@DPTR
        ADDC    A,#0x0
        MOVX    @DPTR,A
        RET
        CFI EndBlock cfiCond6
        CFI EndBlock cfiCond7
        CFI EndBlock cfiPicker8

        COMMON INTVEC:CODE:ROOT(0)
        ORG 91
`??T3_ISR??INTVEC 91`:
        LJMP       (T3_ISR)

        RSEG XDATA_ID:CODE:NOROOT(0)
`?<Initializer for StepMotorTurnMode>`:
        DATA16
        DW 1

        RSEG BANK_RELAYS:CODE:REORDER:NOROOT(0)
??InitT3?relay:
        LCALL   ?BDISPATCH
        DATA
        DC24    InitT3

        RSEG BANK_RELAYS:CODE:REORDER:NOROOT(0)
??TimerInit?relay:
        LCALL   ?BDISPATCH
        DATA
        DC24    TimerInit

        END
//   44 
// 
// 33 bytes in segment BANKED_CODE
// 12 bytes in segment BANK_RELAYS
//  3 bytes in segment INTVEC
// 90 bytes in segment NEAR_CODE
//  4 bytes in segment SFR_AN
//  2 bytes in segment XDATA_I
//  2 bytes in segment XDATA_ID
//  6 bytes in segment XDATA_Z
// 
// 137 bytes of CODE  memory (+ 3 bytes shared)
//   0 bytes of DATA  memory (+ 4 bytes shared)
//   8 bytes of XDATA memory
//
//Errors: none
//Warnings: 1
